(dp0
S'kek'
p1
ccopy_reg
_reconstructor
p2
(cgeometry_msgs.msg._PoseWithCovarianceStamped
PoseWithCovarianceStamped
p3
c__builtin__
object
p4
Ntp5
Rp6
(lp7
g2
(cstd_msgs.msg._Header
Header
p8
g4
Ntp9
Rp10
(lp11
I51
ag2
(cgenpy.rostime
Time
p12
g4
Ntp13
Rp14
(lp15
I1496370957
aI193150669
abaS'map'
p16
abag2
(cgeometry_msgs.msg._PoseWithCovariance
PoseWithCovariance
p17
g4
Ntp18
Rp19
(lp20
g2
(cgeometry_msgs.msg._Pose
Pose
p21
g4
Ntp22
Rp23
(lp24
g2
(cgeometry_msgs.msg._Point
Point
p25
g4
Ntp26
Rp27
(lp28
F-1.1496820835941879
aF-15.991015933873118
aF0.0
abag2
(cgeometry_msgs.msg._Quaternion
Quaternion
p29
g4
Ntp30
Rp31
(lp32
F0.0
aF0.0
aF-0.14601332066541264
aF0.9892826240201833
ababa(F0.01184442127952079
F-0.0078615934461439
F0.0
F0.0
F0.0
F0.0
F-0.0078615934461439
F0.019500152217915456
F0.0
F0.0
F0.0
F0.0
F0.0
F0.0
F0.0
F0.0
F0.0
F0.0
F0.0
F0.0
F0.0
F0.0
F0.0
F0.0
F0.0
F0.0
F0.0
F0.0
F0.0
F0.0
F0.0
F0.0
F0.0
F0.0
F0.0
F0.03181226934547543
tp33
ababsS'new psoe'
p34
g2
(g3
g4
Ntp35
Rp36
(lp37
g2
(g8
g4
Ntp38
Rp39
(lp40
I6
ag2
(g12
g4
Ntp41
Rp42
(lp43
I472
aI682000000
abaS'map'
p44
abag2
(g17
g4
Ntp45
Rp46
(lp47
g2
(g21
g4
Ntp48
Rp49
(lp50
g2
(g25
g4
Ntp51
Rp52
(lp53
F4.907958984375
aF-1.3634421825408936
aF0.49996718764305115
abag2
(g29
g4
Ntp54
Rp55
(lp56
F9.330467946710996e-06
aF-1.3333172319107689e-05
aF0.9050843715667725
aF0.4252621531486511
ababa(F0.006848507190500008
F-0.0009112555795457444
F0.0
F0.0
F0.0
F0.0
F-0.0009112555795457444
F0.004722706279153952
F0.0
F0.0
F0.0
F0.0
F0.0
F0.0
F0.0
F0.0
F0.0
F0.0
F0.0
F0.0
F0.0
F0.0
F0.0
F0.0
F0.0
F0.0
F0.0
F0.0
F0.0
F0.0
F0.0
F0.0
F0.0
F0.0
F0.0
F0.0018912387016205591
tp57
ababsS'chef_table'
p58
g2
(g3
g4
Ntp59
Rp60
(lp61
g2
(g8
g4
Ntp62
Rp63
(lp64
I3
ag2
(g12
g4
Ntp65
Rp66
(lp67
I1495833811
aI836621737
abaS'map'
p68
abag2
(g17
g4
Ntp69
Rp70
(lp71
g2
(g21
g4
Ntp72
Rp73
(lp74
g2
(g25
g4
Ntp75
Rp76
(lp77
F-3.897092646593393
aF-14.317251368792949
aF0.0
abag2
(g29
g4
Ntp78
Rp79
(lp80
F0.0
aF0.0
aF0.9994771135541229
aF0.032334184410910335
ababa(F0.02556332660303795
F-0.00758064344846332
F0.0
F0.0
F0.0
F0.0
F-0.00758064344846332
F0.01075798230792202
F0.0
F0.0
F0.0
F0.0
F0.0
F0.0
F0.0
F0.0
F0.0
F0.0
F0.0
F0.0
F0.0
F0.0
F0.0
F0.0
F0.0
F0.0
F0.0
F0.0
F0.0
F0.0
F0.0
F0.0
F0.0
F0.0
F0.0
F0.02082421465801755
tp81
ababsS'middle2'
p82
g2
(g3
g4
Ntp83
Rp84
(lp85
g2
(g8
g4
Ntp86
Rp87
(lp88
I553
ag2
(g12
g4
Ntp89
Rp90
(lp91
I1496261043
aI222131961
abaS'map'
p92
abag2
(g17
g4
Ntp93
Rp94
(lp95
g2
(g21
g4
Ntp96
Rp97
(lp98
g2
(g25
g4
Ntp99
Rp100
(lp101
F-3.339777701082738
aF-14.618794547394307
aF0.0
abag2
(g29
g4
Ntp102
Rp103
(lp104
F0.0
aF0.0
aF-0.057014075563205015
aF0.9983733746388037
ababa(F0.048678305260171584
F0.0028274483623320634
F0.0
F0.0
F0.0
F0.0
F0.002827448362339169
F0.007845630869439901
F0.0
F0.0
F0.0
F0.0
F0.0
F0.0
F0.0
F0.0
F0.0
F0.0
F0.0
F0.0
F0.0
F0.0
F0.0
F0.0
F0.0
F0.0
F0.0
F0.0
F0.0
F0.0
F0.0
F0.0
F0.0
F0.0
F0.0
F0.028571112156518665
tp105
ababsS'middle'
p106
g2
(g3
g4
Ntp107
Rp108
(lp109
g2
(g8
g4
Ntp110
Rp111
(lp112
I316
ag2
(g12
g4
Ntp113
Rp114
(lp115
I1496260535
aI678955585
abaS'map'
p116
abag2
(g17
g4
Ntp117
Rp118
(lp119
g2
(g21
g4
Ntp120
Rp121
(lp122
g2
(g25
g4
Ntp123
Rp124
(lp125
F-3.354297917367856
aF-14.46720374516384
aF0.0
abag2
(g29
g4
Ntp126
Rp127
(lp128
F0.0
aF0.0
aF-0.0603660172199045
aF0.9981763090581774
ababa(F0.04185133281353437
F0.0027358945591444694
F0.0
F0.0
F0.0
F0.0
F0.0027358945591444694
F0.00863961052544937
F0.0
F0.0
F0.0
F0.0
F0.0
F0.0
F0.0
F0.0
F0.0
F0.0
F0.0
F0.0
F0.0
F0.0
F0.0
F0.0
F0.0
F0.0
F0.0
F0.0
F0.0
F0.0
F0.0
F0.0
F0.0
F0.0
F0.0
F0.034166731199446285
tp129
ababsS'client_1'
p130
g2
(g3
g4
Ntp131
Rp132
(lp133
g2
(g8
g4
Ntp134
Rp135
(lp136
I254
ag2
(g12
g4
Ntp137
Rp138
(lp139
I1496287424
aI60218555
abaS'map'
p140
abag2
(g17
g4
Ntp141
Rp142
(lp143
g2
(g21
g4
Ntp144
Rp145
(lp146
g2
(g25
g4
Ntp147
Rp148
(lp149
F-3.112275150764274
aF-14.146305779840281
aF0.0
abag2
(g29
g4
Ntp150
Rp151
(lp152
F0.0
aF0.0
aF0.04854397379325732
aF0.9988210463383116
ababa(F0.0679521650461421
F0.009571229857023411
F0.0
F0.0
F0.0
F0.0
F0.009571229857023411
F0.01556734585221875
F0.0
F0.0
F0.0
F0.0
F0.0
F0.0
F0.0
F0.0
F0.0
F0.0
F0.0
F0.0
F0.0
F0.0
F0.0
F0.0
F0.0
F0.0
F0.0
F0.0
F0.0
F0.0
F0.0
F0.0
F0.0
F0.0
F0.0
F0.05954556193965841
tp153
ababsS'client_2'
p154
g2
(g3
g4
Ntp155
Rp156
(lp157
g2
(g8
g4
Ntp158
Rp159
(lp160
I247
ag2
(g12
g4
Ntp161
Rp162
(lp163
I1496287389
aI325642127
abaS'map'
p164
abag2
(g17
g4
Ntp165
Rp166
(lp167
g2
(g21
g4
Ntp168
Rp169
(lp170
g2
(g25
g4
Ntp171
Rp172
(lp173
F-3.3623199402954214
aF-14.525894305357893
aF0.0
abag2
(g29
g4
Ntp174
Rp175
(lp176
F0.0
aF0.0
aF-0.07267677853262562
aF0.9973555463635422
ababa(F0.04085803838331614
F-0.004359272124837332
F0.0
F0.0
F0.0
F0.0
F-0.004359272124837332
F0.007607304732943021
F0.0
F0.0
F0.0
F0.0
F0.0
F0.0
F0.0
F0.0
F0.0
F0.0
F0.0
F0.0
F0.0
F0.0
F0.0
F0.0
F0.0
F0.0
F0.0
F0.0
F0.0
F0.0
F0.0
F0.0
F0.0
F0.0
F0.0
F0.017469074004415663
tp177
ababs.