(dp0
S'middle'
p1
ccopy_reg
_reconstructor
p2
(cgeometry_msgs.msg._PoseWithCovarianceStamped
PoseWithCovarianceStamped
p3
c__builtin__
object
p4
Ntp5
Rp6
(lp7
g2
(cstd_msgs.msg._Header
Header
p8
g4
Ntp9
Rp10
(lp11
I101
ag2
(cgenpy.rostime
Time
p12
g4
Ntp13
Rp14
(lp15
I614
aI209000000
abaS'map'
p16
abag2
(cgeometry_msgs.msg._PoseWithCovariance
PoseWithCovariance
p17
g4
Ntp18
Rp19
(lp20
g2
(cgeometry_msgs.msg._Pose
Pose
p21
g4
Ntp22
Rp23
(lp24
g2
(cgeometry_msgs.msg._Point
Point
p25
g4
Ntp26
Rp27
(lp28
F3.8004331588745117
aF1.112160325050354
aF0.5000008940696716
abag2
(cgeometry_msgs.msg._Quaternion
Quaternion
p29
g4
Ntp30
Rp31
(lp32
F-1.151536707766354e-06
aF2.3714881081104977e-06
aF-0.6507313847541809
aF0.7593091726303101
ababa(F0.007034867664092559
F-0.003511993598002583
F0.0
F0.0
F0.0
F0.0
F-0.003511993598002583
F0.009002664997732834
F0.0
F0.0
F0.0
F0.0
F0.0
F0.0
F0.0
F0.0
F0.0
F0.0
F0.0
F0.0
F0.0
F0.0
F0.0
F0.0
F0.0
F0.0
F0.0
F0.0
F0.0
F0.0
F0.0
F0.0
F0.0
F0.0
F0.0
F0.003400447894575785
tp33
ababsS'right'
p34
g2
(g3
g4
Ntp35
Rp36
(lp37
g2
(g8
g4
Ntp38
Rp39
(lp40
I1
ag2
(g12
g4
Ntp41
Rp42
(lp43
I89
aI898000000
abaS'map'
p44
abag2
(g17
g4
Ntp45
Rp46
(lp47
g2
(g21
g4
Ntp48
Rp49
(lp50
g2
(g25
g4
Ntp51
Rp52
(lp53
F2.710218906402588
aF-3.8655529022216797
aF0.5
abag2
(g29
g4
Ntp54
Rp55
(lp56
F-1.5004741726443172e-05
aF1.4041168014955474e-06
aF-0.9970366358757019
aF-0.07694260030984879
ababa(F0.012347576593551679
F-0.007735120904699855
F0.0
F0.0
F0.0
F0.0
F-0.0077351209047034075
F0.008232211688985913
F0.0
F0.0
F0.0
F0.0
F0.0
F0.0
F0.0
F0.0
F0.0
F0.0
F0.0
F0.0
F0.0
F0.0
F0.0
F0.0
F0.0
F0.0
F0.0
F0.0
F0.0
F0.0
F0.0
F0.0
F0.0
F0.0
F0.0
F0.011662081813620433
tp57
ababsS'left'
p58
g2
(g3
g4
Ntp59
Rp60
(lp61
g2
(g8
g4
Ntp62
Rp63
(lp64
I2
ag2
(g12
g4
Ntp65
Rp66
(lp67
I392
aI158000000
abaS'map'
p68
abag2
(g17
g4
Ntp69
Rp70
(lp71
g2
(g21
g4
Ntp72
Rp73
(lp74
g2
(g25
g4
Ntp75
Rp76
(lp77
F2.1296541690826416
aF5.400867938995361
aF0.5
abag2
(g29
g4
Ntp78
Rp79
(lp80
F4.0861706906980544e-07
aF6.68738834974647e-07
aF0.690488338470459
aF0.7233450412750244
ababa(F0.0020990206624453833
F-0.0007183346947492453
F0.0
F0.0
F0.0
F0.0
F-0.000718334694752798
F0.0017515665428575744
F0.0
F0.0
F0.0
F0.0
F0.0
F0.0
F0.0
F0.0
F0.0
F0.0
F0.0
F0.0
F0.0
F0.0
F0.0
F0.0
F0.0
F0.0
F0.0
F0.0
F0.0
F0.0
F0.0
F0.0
F0.0
F0.0
F0.0
F0.0017306996844428876
tp81
ababsS'start'
p82
g2
(g3
g4
Ntp83
Rp84
(lp85
g2
(g8
g4
Ntp86
Rp87
(lp88
I174
ag2
(g12
g4
Ntp89
Rp90
(lp91
I712
aI601000000
abaS'map'
p92
abag2
(g17
g4
Ntp93
Rp94
(lp95
g2
(g21
g4
Ntp96
Rp97
(lp98
g2
(g25
g4
Ntp99
Rp100
(lp101
F-0.2153655830089793
aF-0.09804962576086498
aF0.5
abag2
(g29
g4
Ntp102
Rp103
(lp104
F0.0
aF0.0
aF0.0934249059971672
aF0.9956263289705735
ababa(F0.025919195712367227
F0.00968851972008913
F0.0
F0.0
F0.0
F0.0
F0.00968851972008913
F0.030364030788335043
F0.0
F0.0
F0.0
F0.0
F0.0
F0.0
F0.0
F0.0
F0.0
F0.0
F0.0
F0.0
F0.0
F0.0
F0.0
F0.0
F0.0
F0.0
F0.0
F0.0
F0.0
F0.0
F0.0
F0.0
F0.0
F0.0
F0.0
F0.018490457204441438
tp105
ababs.