(dp0
S'client_1'
p1
ccopy_reg
_reconstructor
p2
(cgeometry_msgs.msg._PoseWithCovarianceStamped
PoseWithCovarianceStamped
p3
c__builtin__
object
p4
Ntp5
Rp6
(lp7
g2
(cstd_msgs.msg._Header
Header
p8
g4
Ntp9
Rp10
(lp11
I4
ag2
(cgenpy.rostime
Time
p12
g4
Ntp13
Rp14
(lp15
I1495833861
aI103261760
abaS'map'
p16
abag2
(cgeometry_msgs.msg._PoseWithCovariance
PoseWithCovariance
p17
g4
Ntp18
Rp19
(lp20
g2
(cgeometry_msgs.msg._Pose
Pose
p21
g4
Ntp22
Rp23
(lp24
g2
(cgeometry_msgs.msg._Point
Point
p25
g4
Ntp26
Rp27
(lp28
F-3.290215749643957
aF-14.022964574911512
aF0.0
abag2
(cgeometry_msgs.msg._Quaternion
Quaternion
p29
g4
Ntp30
Rp31
(lp32
F0.0
aF0.0
aF-0.06480226386378744
aF0.9978981243584578
ababa(F0.04963520056243276
F-0.0006379491083663424
F0.0
F0.0
F0.0
F0.0
F-0.0006379491083663424
F0.009615687314180832
F0.0
F0.0
F0.0
F0.0
F0.0
F0.0
F0.0
F0.0
F0.0
F0.0
F0.0
F0.0
F0.0
F0.0
F0.0
F0.0
F0.0
F0.0
F0.0
F0.0
F0.0
F0.0
F0.0
F0.0
F0.0
F0.0
F0.0
F0.04365916669885374
tp33
ababsS'client_2'
p34
g2
(g3
g4
Ntp35
Rp36
(lp37
g2
(g8
g4
Ntp38
Rp39
(lp40
I113
ag2
(g12
g4
Ntp41
Rp42
(lp43
I1495840730
aI221344231
abaS'map'
p44
abag2
(g17
g4
Ntp45
Rp46
(lp47
g2
(g21
g4
Ntp48
Rp49
(lp50
g2
(g25
g4
Ntp51
Rp52
(lp53
F-3.456294886778126
aF-14.39955155984107
aF0.0
abag2
(g29
g4
Ntp54
Rp55
(lp56
F0.0
aF0.0
aF-0.12358584510821342
aF0.9923338847831856
ababa(F0.03737664782050132
F-0.00027064736303827885
F0.0
F0.0
F0.0
F0.0
F-0.00027064736303827885
F0.011859288098122533
F0.0
F0.0
F0.0
F0.0
F0.0
F0.0
F0.0
F0.0
F0.0
F0.0
F0.0
F0.0
F0.0
F0.0
F0.0
F0.0
F0.0
F0.0
F0.0
F0.0
F0.0
F0.0
F0.0
F0.0
F0.0
F0.0
F0.0
F0.03802297082095786
tp57
ababsS'chef_table'
p58
g2
(g3
g4
Ntp59
Rp60
(lp61
g2
(g8
g4
Ntp62
Rp63
(lp64
I3
ag2
(g12
g4
Ntp65
Rp66
(lp67
I1495833811
aI836621737
abaS'map'
p68
abag2
(g17
g4
Ntp69
Rp70
(lp71
g2
(g21
g4
Ntp72
Rp73
(lp74
g2
(g25
g4
Ntp75
Rp76
(lp77
F-3.897092646593393
aF-14.317251368792949
aF0.0
abag2
(g29
g4
Ntp78
Rp79
(lp80
F0.0
aF0.0
aF0.9994771135541229
aF0.032334184410910335
ababa(F0.02556332660303795
F-0.00758064344846332
F0.0
F0.0
F0.0
F0.0
F-0.00758064344846332
F0.01075798230792202
F0.0
F0.0
F0.0
F0.0
F0.0
F0.0
F0.0
F0.0
F0.0
F0.0
F0.0
F0.0
F0.0
F0.0
F0.0
F0.0
F0.0
F0.0
F0.0
F0.0
F0.0
F0.0
F0.0
F0.0
F0.0
F0.0
F0.0
F0.02082421465801755
tp81
ababsS'new psoe'
p82
g2
(g3
g4
Ntp83
Rp84
(lp85
g2
(g8
g4
Ntp86
Rp87
(lp88
I6
ag2
(g12
g4
Ntp89
Rp90
(lp91
I472
aI682000000
abaS'map'
p92
abag2
(g17
g4
Ntp93
Rp94
(lp95
g2
(g21
g4
Ntp96
Rp97
(lp98
g2
(g25
g4
Ntp99
Rp100
(lp101
F4.907958984375
aF-1.3634421825408936
aF0.49996718764305115
abag2
(g29
g4
Ntp102
Rp103
(lp104
F9.330467946710996e-06
aF-1.3333172319107689e-05
aF0.9050843715667725
aF0.4252621531486511
ababa(F0.006848507190500008
F-0.0009112555795457444
F0.0
F0.0
F0.0
F0.0
F-0.0009112555795457444
F0.004722706279153952
F0.0
F0.0
F0.0
F0.0
F0.0
F0.0
F0.0
F0.0
F0.0
F0.0
F0.0
F0.0
F0.0
F0.0
F0.0
F0.0
F0.0
F0.0
F0.0
F0.0
F0.0
F0.0
F0.0
F0.0
F0.0
F0.0
F0.0
F0.0018912387016205591
tp105
ababs.