(dp0
S'wow'
p1
ccopy_reg
_reconstructor
p2
(cprogram_ctrl
Program
p3
c__builtin__
object
p4
Ntp5
Rp6
(dp7
S'steps'
p8
(lp9
g2
(cprogram_ctrl
ProgramStep
p10
g4
Ntp11
Rp12
(dp13
S'pose'
p14
g2
(cgeometry_msgs.msg._PoseStamped
PoseStamped
p15
g4
Ntp16
Rp17
(lp18
g2
(cstd_msgs.msg._Header
Header
p19
g4
Ntp20
Rp21
(lp22
I0
ag2
(cgenpy.rostime
Time
p23
g4
Ntp24
Rp25
(lp26
I0
aI0
abaS'base_link'
p27
abag2
(cgeometry_msgs.msg._Pose
Pose
p28
g4
Ntp29
Rp30
(lp31
g2
(cgeometry_msgs.msg._Point
Point
p32
g4
Ntp33
Rp34
(lp35
F0.7322606188184401
aF-0.05642952217121835
aF0.8714570973037148
abag2
(cgeometry_msgs.msg._Quaternion
Quaternion
p36
g4
Ntp37
Rp38
(lp39
F0.005871026620083812
aF0.7106174154137761
aF0.0007967154492850626
aF0.703553683240706
abababsS'gripper_state'
p40
I0
sbasbsS'place'
p41
g2
(g3
g4
Ntp42
Rp43
(dp44
g8
(lp45
g2
(g10
g4
Ntp46
Rp47
(dp48
g14
g2
(g15
g4
Ntp49
Rp50
(lp51
g2
(g19
g4
Ntp52
Rp53
(lp54
I0
ag2
(g23
g4
Ntp55
Rp56
(lp57
I0
aI0
abaS'base_link'
p58
abag2
(g28
g4
Ntp59
Rp60
(lp61
g2
(g32
g4
Ntp62
Rp63
(lp64
F0.3153779043207296
aF0.025873441450801064
aF0.8742910345051254
abag2
(g36
g4
Ntp65
Rp66
(lp67
F0.0004048643517934664
aF0.7044489996491631
aF0.005501530682245493
aF0.7097331724939328
abababsg40
I1
sbag2
(g10
g4
Ntp68
Rp69
(dp70
g14
g2
(g15
g4
Ntp71
Rp72
(lp73
g2
(g19
g4
Ntp74
Rp75
(lp76
I0
ag2
(g23
g4
Ntp77
Rp78
(lp79
I0
aI0
abaS'base_link'
p80
abag2
(g28
g4
Ntp81
Rp82
(lp83
g2
(g32
g4
Ntp84
Rp85
(lp86
F0.6475816069900903
aF0.02063409105997641
aF0.868473601258483
abag2
(g36
g4
Ntp87
Rp88
(lp89
F0.0008509111302904054
aF0.7085991159054841
aF0.0023807733410047055
aF0.7056067607432015
abababsg40
I1
sbag2
(g10
g4
Ntp90
Rp91
(dp92
g14
g2
(g15
g4
Ntp93
Rp94
(lp95
g2
(g19
g4
Ntp96
Rp97
(lp98
I0
ag2
(g23
g4
Ntp99
Rp100
(lp101
I0
aI0
abaS'base_link'
p102
abag2
(g28
g4
Ntp103
Rp104
(lp105
g2
(g32
g4
Ntp106
Rp107
(lp108
F0.7422628897592604
aF0.018676118844355268
aF0.8686468034481674
abag2
(g36
g4
Ntp109
Rp110
(lp111
F-0.0028698463633552245
aF0.7039048675780917
aF-0.002976449910006432
aF0.7102822270954365
abababsg40
I1
sbag2
(g10
g4
Ntp112
Rp113
(dp114
g14
g2
(g15
g4
Ntp115
Rp116
(lp117
g2
(g19
g4
Ntp118
Rp119
(lp120
I0
ag2
(g23
g4
Ntp121
Rp122
(lp123
I0
aI0
abaS'base_link'
p124
abag2
(g28
g4
Ntp125
Rp126
(lp127
g2
(g32
g4
Ntp128
Rp129
(lp130
F0.7418762940602271
aF0.020986576447607746
aF0.7557403001373162
abag2
(g36
g4
Ntp131
Rp132
(lp133
F0.004640058051632206
aF0.7067811739888633
aF0.00016176388093252258
aF0.7074170027562587
abababsg40
I0
sbag2
(g10
g4
Ntp134
Rp135
(dp136
g14
g2
(g15
g4
Ntp137
Rp138
(lp139
g2
(g19
g4
Ntp140
Rp141
(lp142
I0
ag2
(g23
g4
Ntp143
Rp144
(lp145
I0
aI0
abaS'base_link'
p146
abag2
(g28
g4
Ntp147
Rp148
(lp149
g2
(g32
g4
Ntp150
Rp151
(lp152
F0.7400206731850753
aF0.020533439284088482
aF0.9751596775824967
abag2
(g36
g4
Ntp153
Rp154
(lp155
F-0.0008024951148764483
aF0.708864403451777
aF0.003608357170795047
aF0.7053350929020015
abababsg40
I0
sbasbsS'grab'
p156
g2
(g3
g4
Ntp157
Rp158
(dp159
g8
(lp160
g2
(g10
g4
Ntp161
Rp162
(dp163
g14
g2
(g15
g4
Ntp164
Rp165
(lp166
g2
(g19
g4
Ntp167
Rp168
(lp169
I0
ag2
(g23
g4
Ntp170
Rp171
(lp172
I0
aI0
abaS'handle'
p173
abag2
(g28
g4
Ntp174
Rp175
(lp176
g2
(g32
g4
Ntp177
Rp178
(lp179
cnumpy.core.multiarray
scalar
p180
(cnumpy
dtype
p181
(S'f8'
p182
I0
I1
tp183
Rp184
(I3
S'<'
p185
NNNI-1
I-1
I0
tp186
bS'\x00\x1d\x81\xc7\xee\x9ai\xbf'
p187
tp188
Rp189
ag180
(g184
S'\xa0\xe8\xf8\x86l\xfce?'
p190
tp191
Rp192
ag180
(g184
S'\x88\xd8\x0e\r\xf5\x04\xc1?'
p193
tp194
Rp195
abag2
(g36
g4
Ntp196
Rp197
(lp198
g180
(g184
S'\x10\x11\xc7\x8d\x98\xf0\xe6?'
p199
tp200
Rp201
ag180
(g184
S'\x881\xb0\x8d~j\x8f\xbf'
p202
tp203
Rp204
ag180
(g184
S'\xaf.\xe5\xfcrM\xe6\xbf'
p205
tp206
Rp207
ag180
(g184
S',P\x08\xe591\x86?'
p208
tp209
Rp210
abababsg40
I0
sbag2
(g10
g4
Ntp211
Rp212
(dp213
g14
g2
(g15
g4
Ntp214
Rp215
(lp216
g2
(g19
g4
Ntp217
Rp218
(lp219
I0
ag2
(g23
g4
Ntp220
Rp221
(lp222
I0
aI0
abaS'handle'
p223
abag2
(g28
g4
Ntp224
Rp225
(lp226
g2
(g32
g4
Ntp227
Rp228
(lp229
g180
(g184
S'\x00P\xf2\xe4\x08m3\xbf'
p230
tp231
Rp232
ag180
(g184
S'\x005F!/kN?'
p233
tp234
Rp235
ag180
(g184
S'\x00\x0f\xda\xaf\xe8\x0c\xa1?'
p236
tp237
Rp238
abag2
(g36
g4
Ntp239
Rp240
(lp241
g180
(g184
S'\xadj&\xbfa\xf2\xe6?'
p242
tp243
Rp244
ag180
(g184
S'q:\xbf\x02 f\x91\xbf'
p245
tp246
Rp247
ag180
(g184
S'\x97\xf3\x1f\xc6\xc2K\xe6\xbf'
p248
tp249
Rp250
ag180
(g184
S'\x8e\xfb\xd5\xd2swy?'
p251
tp252
Rp253
abababsg40
I1
sbag2
(g10
g4
Ntp254
Rp255
(dp256
g14
g2
(g15
g4
Ntp257
Rp258
(lp259
g2
(g19
g4
Ntp260
Rp261
(lp262
I0
ag2
(g23
g4
Ntp263
Rp264
(lp265
I0
aI0
abaS'handle'
p266
abag2
(g28
g4
Ntp267
Rp268
(lp269
g2
(g32
g4
Ntp270
Rp271
(lp272
g180
(g184
S'\x00\xfd\xf0\x0c\x9e\xf3u\xbf'
p273
tp274
Rp275
ag180
(g184
S'\x00\x0f\xd6\xea\xd1cO?'
p276
tp277
Rp278
ag180
(g184
S'\x0c3\xca\x84\xda\x12\xc2?'
p279
tp280
Rp281
abag2
(g36
g4
Ntp282
Rp283
(lp284
g180
(g184
S'\x7fr\xcc\xc0\x9d&\xe7?'
p285
tp286
Rp287
ag180
(g184
S'c\xe5:\xc7d\xb8\xa4\xbf'
p288
tp289
Rp290
ag180
(g184
S'T\xcc\x01\xb0D\t\xe6\xbf'
p291
tp292
Rp293
ag180
(g184
S'&\xd9^\x10\x87\x06\x9c\xbf'
p294
tp295
Rp296
abababsg40
I1
sbag2
(g10
g4
Ntp297
Rp298
(dp299
g14
g2
(g15
g4
Ntp300
Rp301
(lp302
g2
(g19
g4
Ntp303
Rp304
(lp305
I0
ag2
(g23
g4
Ntp306
Rp307
(lp308
I0
aI0
abaS'base_link'
p309
abag2
(g28
g4
Ntp310
Rp311
(lp312
g2
(g32
g4
Ntp313
Rp314
(lp315
F0.3148719672814081
aF0.02543058811189514
aF0.8749733162233613
abag2
(g36
g4
Ntp316
Rp317
(lp318
F-0.0009670310544770067
aF0.7055687467945886
aF0.004975237739218907
aF0.7086233522874417
abababsg40
I1
sbasbs.