(dp0
S'high-five'
p1
ccopy_reg
_reconstructor
p2
(cprogram_ctrl
Program
p3
c__builtin__
object
p4
Ntp5
Rp6
(dp7
S'steps'
p8
(lp9
g2
(cprogram_ctrl
ProgramStep
p10
g4
Ntp11
Rp12
(dp13
S'has_constraint'
p14
I00
sS'pose'
p15
NsS'step_type'
p16
S'move_all_joints'
p17
sS'all_joint_states'
p18
(lp19
F1.0351050760925293
aF-0.04705820038574219
aF-0.6336771918141174
aF0.39922565372924806
aF0.6308996415031433
aF-1.9135128175354004
aF-0.03745736166114509
asS'joint_value'
p20
I0
sS'torso_height'
p21
F0.4
sS'joint_name'
p22
S''
p23
sS'gripper_state'
p24
I0
sbag2
(g10
g4
Ntp25
Rp26
(dp27
g14
I00
sg15
Nsg16
g17
sg18
(lp28
F0.9031827714622498
aF-0.29939804032104494
aF-0.6329109741055298
aF0.400375784954834
aF0.6301326489341735
aF-1.1990605508422851
aF-0.038991342375302315
asg20
I0
sg21
F0.4
sg22
g23
sg24
I0
sbasbsS'start'
p29
g2
(g3
g4
Ntp30
Rp31
(dp32
S'steps'
p33
(lp34
g2
(g10
g4
Ntp35
Rp36
(dp37
S'has_constraint'
p38
I00
sS'pose'
p39
NsS'step_type'
p40
S'move_torso'
p41
sS'all_joint_states'
p42
(lp43
sS'joint_value'
p44
I0
sS'torso_height'
p45
F0.38610494964669956
sS'joint_name'
p46
g23
sS'gripper_state'
p47
I0
sbag2
(g10
g4
Ntp48
Rp49
(dp50
S'has_constraint'
p51
I00
sS'pose'
p52
NsS'step_type'
p53
S'move_all_joints'
p54
sS'all_joint_states'
p55
(lp56
F1.0784400370300293
aF-0.9041701312329101
aF-0.6490170431935119
aF1.610686720928955
aF0.504346225251007
aF0.9968332136535645
aF-0.6859477395957947
asS'joint_value'
p57
I0
sS'torso_height'
p58
F0.4
sS'joint_name'
p59
g23
sS'gripper_state'
p60
I0
sbasbsS'retrieve'
p61
g2
(g3
g4
Ntp62
Rp63
(dp64
S'steps'
p65
(lp66
g2
(g10
g4
Ntp67
Rp68
(dp69
S'has_constraint'
p70
I00
sS'pose'
p71
NsS'step_type'
p72
S'move_torso'
p73
sS'all_joint_states'
p74
(lp75
sS'joint_value'
p76
I0
sS'torso_height'
p77
F0.37998115496979673
sS'joint_name'
p78
g23
sS'gripper_state'
p79
I0
sbag2
(g10
g4
Ntp80
Rp81
(dp82
S'has_constraint'
p83
I00
sS'pose'
p84
NsS'step_type'
p85
S'move_all_joints'
p86
sS'all_joint_states'
p87
(lp88
F0.9687603380859375
aF-0.21617994263427734
aF-0.19227498002880097
aF-0.008430062213134765
aF0.19985103963737488
aF1.8247989500427246
aF-0.11415658991994858
asS'joint_value'
p89
I0
sS'torso_height'
p90
F0.4
sS'joint_name'
p91
g23
sS'gripper_state'
p92
I0
sbag2
(g10
g4
Ntp93
Rp94
(dp95
S'has_constraint'
p96
I00
sS'pose'
p97
NsS'step_type'
p98
S'move_gripper'
p99
sS'all_joint_states'
p100
(lp101
sS'joint_value'
p102
I0
sS'torso_height'
p103
F0.4
sS'joint_name'
p104
g23
sS'gripper_state'
p105
I0
sbag2
(g10
g4
Ntp106
Rp107
(dp108
g83
I00
sg84
Nsg85
g86
sg87
(lp109
F0.07521661784057618
aF-0.21656331970947265
aF-0.19342546888225556
aF-0.008430062213134765
aF0.19985103963737488
aF1.8247989500427246
aF-0.11338959735097885
asg89
I0
sg90
F0.4
sg91
g23
sg92
I0
sbag2
(g10
g4
Ntp110
Rp111
(dp112
S'has_constraint'
p113
I01
sS'pose'
p114
g2
(cgeometry_msgs.msg._PoseStamped
PoseStamped
p115
g4
Ntp116
Rp117
(lp118
g2
(cstd_msgs.msg._Header
Header
p119
g4
Ntp120
Rp121
(lp122
I0
ag2
(cgenpy.rostime
Time
p123
g4
Ntp124
Rp125
(lp126
I0
aI0
abaS'handle'
p127
abag2
(cgeometry_msgs.msg._Pose
Pose
p128
g4
Ntp129
Rp130
(lp131
g2
(cgeometry_msgs.msg._Point
Point
p132
g4
Ntp133
Rp134
(lp135
cnumpy.core.multiarray
scalar
p136
(cnumpy
dtype
p137
(S'f8'
p138
I0
I1
tp139
Rp140
(I3
S'<'
p141
NNNI-1
I-1
I0
tp142
bS'\x00\xa0\x16\xd1u#a\xbf'
p143
tp144
Rp145
ag136
(g140
S'\x002G\x05\x1dy\x13?'
p146
tp147
Rp148
ag136
(g140
S'\xf0s\xef\xd3\x97\xfc\xc0?'
p149
tp150
Rp151
abag2
(cgeometry_msgs.msg._Quaternion
Quaternion
p152
g4
Ntp153
Rp154
(lp155
g136
(g140
S'\xa0\xe5\xd0\xfb\xce\xbb\xe6?'
p156
tp157
Rp158
ag136
(g140
S'\xc0\xa8V\xc1\xe0z\x98\xbf'
p159
tp160
Rp161
ag136
(g140
S'\x92\x87\x87\xd2\xb8\x80\xe6\xbf'
p162
tp163
Rp164
ag136
(g140
S'\xdd\x11O-\xd4\x05\x8e\xbf'
p165
tp166
Rp167
abababsS'step_type'
p168
S'move_arm'
p169
sS'all_joint_states'
p170
(lp171
sS'joint_value'
p172
I0
sS'torso_height'
p173
F0.37965646386146545
sS'joint_name'
p174
g23
sS'gripper_state'
p175
I0
sbag2
(g10
g4
Ntp176
Rp177
(dp178
S'has_constraint'
p179
I01
sS'pose'
p180
g2
(g115
g4
Ntp181
Rp182
(lp183
g2
(g119
g4
Ntp184
Rp185
(lp186
I0
ag2
(g123
g4
Ntp187
Rp188
(lp189
I0
aI0
abaS'handle'
p190
abag2
(g128
g4
Ntp191
Rp192
(lp193
g2
(g132
g4
Ntp194
Rp195
(lp196
g136
(g140
S'\x00\xe2\xb0\xdf\xe8Zl\xbf'
p197
tp198
Rp199
ag136
(g140
S'\x80\xd5\x03\xa6jZl?'
p200
tp201
Rp202
ag136
(g140
S' \x16\n\xaa \xa5\xab?'
p203
tp204
Rp205
abag2
(g152
g4
Ntp206
Rp207
(lp208
g136
(g140
S'<\xa6\x04\x0b\x8f\xfa\xe6?'
p209
tp210
Rp211
ag136
(g140
S'\xd13z\xaa\x00\x0e\xad\xbf'
p212
tp213
Rp214
ag136
(g140
S'\xf6h\xa7@"&\xe6\xbf'
p215
tp216
Rp217
ag136
(g140
S'E\xfa\xe56K4\xa7\xbf'
p218
tp219
Rp220
abababsS'step_type'
p221
S'move_arm'
p222
sS'all_joint_states'
p223
(lp224
sS'joint_value'
p225
I0
sS'torso_height'
p226
F0.37962594628334045
sS'joint_name'
p227
g23
sS'gripper_state'
p228
I0
sbag2
(g10
g4
Ntp229
Rp230
(dp231
S'has_constraint'
p232
I01
sS'pose'
p233
g2
(g115
g4
Ntp234
Rp235
(lp236
g2
(g119
g4
Ntp237
Rp238
(lp239
I0
ag2
(g123
g4
Ntp240
Rp241
(lp242
I0
aI0
abaS'handle'
p243
abag2
(g128
g4
Ntp244
Rp245
(lp246
g2
(g132
g4
Ntp247
Rp248
(lp249
g136
(g140
S'\x00\x9eL\xb7N\xa0X\xbf'
p250
tp251
Rp252
ag136
(g140
S'\x00\x8e\xc0\x10\x8d\xdcY\xbf'
p253
tp254
Rp255
ag136
(g140
S'\xe0Lu\xf4\xb6\x8b\xa6?'
p256
tp257
Rp258
abag2
(g152
g4
Ntp259
Rp260
(lp261
g136
(g140
S'%gD\xb3(\xa9\xe6?'
p262
tp263
Rp264
ag136
(g140
S'\x1d\xda\x91\x97P\x96\xa4\xbf'
p265
tp266
Rp267
ag136
(g140
S'F\xebz@\xac\x81\xe6\xbf'
p268
tp269
Rp270
ag136
(g140
S'\x9a-V\xac\xab5\xa8\xbf'
p271
tp272
Rp273
abababsS'step_type'
p274
S'move_arm'
p275
sS'all_joint_states'
p276
(lp277
sS'joint_value'
p278
I0
sS'torso_height'
p279
F0.3796488344669342
sS'joint_name'
p280
g23
sS'gripper_state'
p281
I0
sbag2
(g10
g4
Ntp282
Rp283
(dp284
g96
I00
sg97
Nsg98
g99
sg100
(lp285
sg102
I0
sg103
F0.4
sg104
g23
sg105
I1
sbag2
(g10
g4
Ntp286
Rp287
(dp288
S'has_constraint'
p289
I00
sS'torso_height'
p290
F0.34366074204444885
sS'pose'
p291
g2
(g115
g4
Ntp292
Rp293
(lp294
g2
(g119
g4
Ntp295
Rp296
(lp297
I0
ag2
(g123
g4
Ntp298
Rp299
(lp300
I0
aI0
abaS'handle'
p301
abag2
(g128
g4
Ntp302
Rp303
(lp304
g2
(g132
g4
Ntp305
Rp306
(lp307
g136
(g140
S'\x00\xc0\x16\x1d\x9a\xf1\x07\xbf'
p308
tp309
Rp310
ag136
(g140
S'\x00\x99\x110K\xeaH?'
p311
tp312
Rp313
ag136
(g140
S'\xe0\xf3)\x91\xbb\x8f\xc0?'
p314
tp315
Rp316
abag2
(g152
g4
Ntp317
Rp318
(lp319
g136
(g140
S'\xfa\xd1U\xacy\xc4\xe6?'
p320
tp321
Rp322
ag136
(g140
S'\x82\x0c\x926\x8e\xd0p\xbf'
p323
tp324
Rp325
ag136
(g140
S'\x903\x0c\xb2\xcf{\xe6\xbf'
p326
tp327
Rp328
ag136
(g140
S'\nj\xa2\xa1\x8cG\x85?'
p329
tp330
Rp331
abababsS'step_type'
p332
S'move_arm'
p333
sS'gripper_state'
p334
I1
sbag2
(g10
g4
Ntp335
Rp336
(dp337
g83
I00
sg84
Nsg85
g86
sg87
(lp338
F-0.029861125689697267
aF-0.8681217189099121
aF-0.04117786862485886
aF1.0630554571960449
aF-0.003401421170186998
aF1.3929838026428223
aF-0.14138475161256792
asg89
I0
sg90
F0.4
sg91
g23
sg92
I0
sbasbsS'place'
p339
g2
(g3
g4
Ntp340
Rp341
(dp342
S'steps'
p343
(lp344
g2
(g10
g4
Ntp345
Rp346
(dp347
S'has_constraint'
p348
I00
sS'pose'
p349
g2
(g115
g4
Ntp350
Rp351
(lp352
g2
(g119
g4
Ntp353
Rp354
(lp355
I0
ag2
(g123
g4
Ntp356
Rp357
(lp358
I0
aI0
abaS'base_link'
p359
abag2
(g128
g4
Ntp360
Rp361
(lp362
g2
(g132
g4
Ntp363
Rp364
(lp365
F0.6487195659652013
aF-0.10944479376061111
aF0.812608048425506
abag2
(g152
g4
Ntp366
Rp367
(lp368
F-0.0010233116271834647
aF0.7040863411781019
aF0.000343956763379865
aF0.7101135533796635
abababsg332
g333
sS'all_joint_states'
p369
(lp370
sS'joint_value'
p371
I0
sS'torso_height'
p372
F0.39280200004577637
sS'joint_name'
p373
g23
sS'gripper_state'
p374
I1
sbag2
(g10
g4
Ntp375
Rp376
(dp377
g348
I00
sg349
g2
(g115
g4
Ntp378
Rp379
(lp380
g2
(g119
g4
Ntp381
Rp382
(lp383
I0
ag2
(g123
g4
Ntp384
Rp385
(lp386
I0
aI0
abaS'base_link'
p387
abag2
(g128
g4
Ntp388
Rp389
(lp390
g2
(g132
g4
Ntp391
Rp392
(lp393
F0.6479011865458513
aF-0.11048471646369518
aF0.7696215898549699
abag2
(g152
g4
Ntp394
Rp395
(lp396
F-0.0010998470040518304
aF0.7065075132614367
aF-0.0035736726670050497
aF0.7076956640430813
abababsg332
g333
sg369
(lp397
sg371
I0
sg372
F0.39280200004577637
sg373
g23
sg374
I1
sbag2
(g10
g4
Ntp398
Rp399
(dp400
g232
I00
sg233
Nsg274
S'move_gripper'
p401
sg276
(lp402
sg278
I0
sg279
F0.4
sg280
g23
sg281
I0
sbag2
(g10
g4
Ntp403
Rp404
(dp405
g348
I00
sg349
g2
(g115
g4
Ntp406
Rp407
(lp408
g2
(g119
g4
Ntp409
Rp410
(lp411
I0
ag2
(g123
g4
Ntp412
Rp413
(lp414
I0
aI0
abaS'base_link'
p415
abag2
(g128
g4
Ntp416
Rp417
(lp418
g2
(g132
g4
Ntp419
Rp420
(lp421
F0.6463265931200021
aF-0.1078724109234751
aF0.9006158870962271
abag2
(g152
g4
Ntp422
Rp423
(lp424
F0.0058099743203380615
aF0.7095182012149308
aF0.00014291006687164212
aF0.7046631435798517
abababsg332
g333
sg369
(lp425
sg371
I0
sg372
F0.39280200004577637
sg373
g23
sg374
I0
sbasbs.