(dp0
S'start2'
p1
ccopy_reg
_reconstructor
p2
(cprogram_ctrl
Program
p3
c__builtin__
object
p4
Ntp5
Rp6
(dp7
S'steps'
p8
(lp9
g2
(cprogram_ctrl
ProgramStep
p10
g4
Ntp11
Rp12
(dp13
S'has_constraint'
p14
I00
sS'pose'
p15
NsS'step_type'
p16
S'move_torso'
p17
sS'all_joint_states'
p18
(lp19
sS'joint_value'
p20
I0
sS'torso_height'
p21
F0.38610494964669956
sS'joint_name'
p22
S''
p23
sS'gripper_state'
p24
I0
sbag2
(g10
g4
Ntp25
Rp26
(dp27
S'has_constraint'
p28
I00
sS'pose'
p29
NsS'step_type'
p30
S'move_all_joints'
p31
sS'all_joint_states'
p32
(lp33
F1.0784400370300293
aF-0.9041701312329101
aF-0.6490170431935119
aF1.610686720928955
aF0.504346225251007
aF0.9968332136535645
aF-0.6859477395957947
asS'joint_value'
p34
I0
sS'torso_height'
p35
F0.4
sS'joint_name'
p36
g23
sS'gripper_state'
p37
I0
sbasbsS'place'
p38
g2
(g3
g4
Ntp39
Rp40
(dp41
S'steps'
p42
(lp43
g2
(g10
g4
Ntp44
Rp45
(dp46
S'has_constraint'
p47
I00
sS'pose'
p48
g2
(cgeometry_msgs.msg._PoseStamped
PoseStamped
p49
g4
Ntp50
Rp51
(lp52
g2
(cstd_msgs.msg._Header
Header
p53
g4
Ntp54
Rp55
(lp56
I0
ag2
(cgenpy.rostime
Time
p57
g4
Ntp58
Rp59
(lp60
I0
aI0
abaS'base_link'
p61
abag2
(cgeometry_msgs.msg._Pose
Pose
p62
g4
Ntp63
Rp64
(lp65
g2
(cgeometry_msgs.msg._Point
Point
p66
g4
Ntp67
Rp68
(lp69
F0.6487195659652013
aF-0.10944479376061111
aF0.812608048425506
abag2
(cgeometry_msgs.msg._Quaternion
Quaternion
p70
g4
Ntp71
Rp72
(lp73
F-0.0010233116271834647
aF0.7040863411781019
aF0.000343956763379865
aF0.7101135533796635
abababsS'step_type'
p74
S'move_arm'
p75
sS'all_joint_states'
p76
(lp77
sS'joint_value'
p78
I0
sS'torso_height'
p79
F0.39280200004577637
sS'joint_name'
p80
g23
sS'gripper_state'
p81
I1
sbag2
(g10
g4
Ntp82
Rp83
(dp84
g47
I00
sg48
g2
(g49
g4
Ntp85
Rp86
(lp87
g2
(g53
g4
Ntp88
Rp89
(lp90
I0
ag2
(g57
g4
Ntp91
Rp92
(lp93
I0
aI0
abaS'base_link'
p94
abag2
(g62
g4
Ntp95
Rp96
(lp97
g2
(g66
g4
Ntp98
Rp99
(lp100
F0.6479011865458513
aF-0.11048471646369518
aF0.7696215898549699
abag2
(g70
g4
Ntp101
Rp102
(lp103
F-0.0010998470040518304
aF0.7065075132614367
aF-0.0035736726670050497
aF0.7076956640430813
abababsg74
g75
sg76
(lp104
sg78
I0
sg79
F0.39280200004577637
sg80
g23
sg81
I1
sbag2
(g10
g4
Ntp105
Rp106
(dp107
g47
I00
sg48
g2
(g49
g4
Ntp108
Rp109
(lp110
g2
(g53
g4
Ntp111
Rp112
(lp113
I0
ag2
(g57
g4
Ntp114
Rp115
(lp116
I0
aI0
abaS'base_link'
p117
abag2
(g62
g4
Ntp118
Rp119
(lp120
g2
(g66
g4
Ntp121
Rp122
(lp123
F0.6463265931200021
aF-0.1078724109234751
aF0.9006158870962271
abag2
(g70
g4
Ntp124
Rp125
(lp126
F0.0058099743203380615
aF0.7095182012149308
aF0.00014291006687164212
aF0.7046631435798517
abababsg74
g75
sg76
(lp127
sg78
I0
sg79
F0.39280200004577637
sg80
g23
sg81
I0
sbasbsS'retrieve'
p128
g2
(g3
g4
Ntp129
Rp130
(dp131
S'steps'
p132
(lp133
g2
(g10
g4
Ntp134
Rp135
(dp136
S'has_constraint'
p137
I00
sS'pose'
p138
NsS'step_type'
p139
S'move_torso'
p140
sS'all_joint_states'
p141
(lp142
sS'joint_value'
p143
I0
sS'torso_height'
p144
F0.37998115496979673
sS'joint_name'
p145
g23
sS'gripper_state'
p146
I0
sbag2
(g10
g4
Ntp147
Rp148
(dp149
g137
I00
sg138
Nsg139
S'move_all_joints'
p150
sg141
(lp151
F1.078384194066639
aF-0.9042662500472112
aF-0.6487991812133203
aF1.6106964081170263
aF0.5042310621434076
aF0.9969493954918214
aF-0.6858966196770266
asg143
I0
sg144
F0.4
sg145
g23
sg146
I0
sbag2
(g10
g4
Ntp152
Rp153
(dp154
S'has_constraint'
p155
I00
sS'pose'
p156
NsS'step_type'
p157
S'move_gripper'
p158
sS'all_joint_states'
p159
(lp160
sS'joint_value'
p161
I0
sS'torso_height'
p162
F0.4
sS'joint_name'
p163
g23
sS'gripper_state'
p164
I0
sbag2
(g10
g4
Ntp165
Rp166
(dp167
S'has_constraint'
p168
I00
sS'torso_height'
p169
F0.3436836302280426
sS'pose'
p170
g2
(g49
g4
Ntp171
Rp172
(lp173
g2
(g53
g4
Ntp174
Rp175
(lp176
I0
ag2
(g57
g4
Ntp177
Rp178
(lp179
I0
aI0
abaS'handle'
p180
abag2
(g62
g4
Ntp181
Rp182
(lp183
g2
(g66
g4
Ntp184
Rp185
(lp186
cnumpy.core.multiarray
scalar
p187
(cnumpy
dtype
p188
(S'f8'
p189
I0
I1
tp190
Rp191
(I3
S'<'
p192
NNNI-1
I-1
I0
tp193
bS'\x00`\xb0\x06\x93\xe4\x1b\xbf'
p194
tp195
Rp196
ag187
(g191
S'\xd0\x00\x19e\x8bGj?'
p197
tp198
Rp199
ag187
(g191
S'\x00N\x07\xecY\x0f\xc1?'
p200
tp201
Rp202
abag2
(g70
g4
Ntp203
Rp204
(lp205
g187
(g191
S'\xd6HL\xd71\xaf\xe6?'
p206
tp207
Rp208
ag187
(g191
S'~,d\xd0\x10\x82\xab\xbf'
p209
tp210
Rp211
ag187
(g191
S'\xfb\xe3t\xaf)v\xe6\xbf'
p212
tp213
Rp214
ag187
(g191
S'\xa1-H\xd9\xeeK\xa6\xbf'
p215
tp216
Rp217
abababsg74
g75
sS'gripper_state'
p218
I0
sbag2
(g10
g4
Ntp219
Rp220
(dp221
g168
I00
sg169
F0.34367600083351135
sg170
g2
(g49
g4
Ntp222
Rp223
(lp224
g2
(g53
g4
Ntp225
Rp226
(lp227
I0
ag2
(g57
g4
Ntp228
Rp229
(lp230
I0
aI0
abaS'handle'
p231
abag2
(g62
g4
Ntp232
Rp233
(lp234
g2
(g66
g4
Ntp235
Rp236
(lp237
g187
(g191
S'\x00\xf0Yf\xbeOU\xbf'
p238
tp239
Rp240
ag187
(g191
S' B\xf5F\xee%`?'
p241
tp242
Rp243
ag187
(g191
S'\x00n\x90^\xe2`\xa7?'
p244
tp245
Rp246
abag2
(g70
g4
Ntp247
Rp248
(lp249
g187
(g191
S'f\x86\x10T0\xab\xe6?'
p250
tp251
Rp252
ag187
(g191
S'7\x11eu\x15MO?'
p253
tp254
Rp255
ag187
(g191
S'e\t\x8eL\xe7\x95\xe6\xbf'
p256
tp257
Rp258
ag187
(g191
S'\xa4%\xe0\xfc\xe5\xabr?'
p259
tp260
Rp261
abababsg74
g75
sg218
I0
sbag2
(g10
g4
Ntp262
Rp263
(dp264
g155
I00
sg156
Nsg157
g158
sg159
(lp265
sg161
I0
sg162
F0.4
sg163
g23
sg164
I1
sbag2
(g10
g4
Ntp266
Rp267
(dp268
g168
I00
sg169
F0.34366074204444885
sg170
g2
(g49
g4
Ntp269
Rp270
(lp271
g2
(g53
g4
Ntp272
Rp273
(lp274
I0
ag2
(g57
g4
Ntp275
Rp276
(lp277
I0
aI0
abaS'handle'
p278
abag2
(g62
g4
Ntp279
Rp280
(lp281
g2
(g66
g4
Ntp282
Rp283
(lp284
g187
(g191
S'\x00\xc0\x16\x1d\x9a\xf1\x07\xbf'
p285
tp286
Rp287
ag187
(g191
S'\x00\x99\x110K\xeaH?'
p288
tp289
Rp290
ag187
(g191
S'\xe0\xf3)\x91\xbb\x8f\xc0?'
p291
tp292
Rp293
abag2
(g70
g4
Ntp294
Rp295
(lp296
g187
(g191
S'\xfa\xd1U\xacy\xc4\xe6?'
p297
tp298
Rp299
ag187
(g191
S'\x82\x0c\x926\x8e\xd0p\xbf'
p300
tp301
Rp302
ag187
(g191
S'\x903\x0c\xb2\xcf{\xe6\xbf'
p303
tp304
Rp305
ag187
(g191
S'\nj\xa2\xa1\x8cG\x85?'
p306
tp307
Rp308
abababsg74
g75
sg218
I1
sbag2
(g10
g4
Ntp309
Rp310
(dp311
g28
I00
sg29
Nsg30
g31
sg32
(lp312
F0.21404155756835938
aF-0.7024518008496093
aF-0.6332944703900146
aF1.6175898924682617
aF0.6305161452186584
aF0.8698963011169434
aF-0.685180747026825
asg34
I0
sg35
F0.4
sg36
g23
sg37
I0
sbasbsS'high-five'
p313
g2
(g3
g4
Ntp314
Rp315
(dp316
S'steps'
p317
(lp318
g2
(g10
g4
Ntp319
Rp320
(dp321
S'has_constraint'
p322
I00
sS'pose'
p323
NsS'step_type'
p324
S'move_all_joints'
p325
sS'all_joint_states'
p326
(lp327
F1.0351050760925293
aF-0.04705820038574219
aF-0.6336771918141174
aF0.39922565372924806
aF0.6308996415031433
aF-1.9135128175354004
aF-0.03745736166114509
asS'joint_value'
p328
I0
sS'torso_height'
p329
F0.4
sS'joint_name'
p330
g23
sS'gripper_state'
p331
I0
sbag2
(g10
g4
Ntp332
Rp333
(dp334
g322
I00
sg323
Nsg324
g325
sg326
(lp335
F0.9031827714622498
aF-0.29939804032104494
aF-0.6329109741055298
aF0.400375784954834
aF0.6301326489341735
aF-1.1990605508422851
aF-0.038991342375302315
asg328
I0
sg329
F0.4
sg330
g23
sg331
I0
sbasbs.