(dp0
S'high-five'
p1
ccopy_reg
_reconstructor
p2
(cprogram_ctrl
Program
p3
c__builtin__
object
p4
Ntp5
Rp6
(dp7
S'steps'
p8
(lp9
g2
(cprogram_ctrl
ProgramStep
p10
g4
Ntp11
Rp12
(dp13
S'has_constraint'
p14
I00
sS'pose'
p15
NsS'step_type'
p16
S'move_all_joints'
p17
sS'all_joint_states'
p18
(lp19
F1.0351050760925293
aF-0.04705820038574219
aF-0.6336771918141174
aF0.39922565372924806
aF0.6308996415031433
aF-1.9135128175354004
aF-0.03745736166114509
asS'joint_value'
p20
I0
sS'torso_height'
p21
F0.4
sS'joint_name'
p22
S''
p23
sS'gripper_state'
p24
I0
sbag2
(g10
g4
Ntp25
Rp26
(dp27
g14
I00
sg15
Nsg16
g17
sg18
(lp28
F0.9031827714622498
aF-0.29939804032104494
aF-0.6329109741055298
aF0.400375784954834
aF0.6301326489341735
aF-1.1990605508422851
aF-0.038991342375302315
asg20
I0
sg21
F0.4
sg22
g23
sg24
I0
sbasbsS'start'
p29
g2
(g3
g4
Ntp30
Rp31
(dp32
S'steps'
p33
(lp34
g2
(g10
g4
Ntp35
Rp36
(dp37
S'has_constraint'
p38
I00
sS'pose'
p39
NsS'step_type'
p40
S'move_torso'
p41
sS'all_joint_states'
p42
(lp43
sS'joint_value'
p44
I0
sS'torso_height'
p45
F0.38610494964669956
sS'joint_name'
p46
g23
sS'gripper_state'
p47
I0
sbag2
(g10
g4
Ntp48
Rp49
(dp50
S'has_constraint'
p51
I00
sS'pose'
p52
NsS'step_type'
p53
S'move_all_joints'
p54
sS'all_joint_states'
p55
(lp56
F1.0784400370300293
aF-0.9041701312329101
aF-0.6490170431935119
aF1.610686720928955
aF0.504346225251007
aF0.9968332136535645
aF-0.6859477395957947
asS'joint_value'
p57
I0
sS'torso_height'
p58
F0.4
sS'joint_name'
p59
g23
sS'gripper_state'
p60
I0
sbasbsS'retrieve'
p61
g2
(g3
g4
Ntp62
Rp63
(dp64
S'steps'
p65
(lp66
g2
(g10
g4
Ntp67
Rp68
(dp69
S'has_constraint'
p70
I00
sS'pose'
p71
NsS'step_type'
p72
S'move_torso'
p73
sS'all_joint_states'
p74
(lp75
sS'joint_value'
p76
I0
sS'torso_height'
p77
F0.37998115496979673
sS'joint_name'
p78
g23
sS'gripper_state'
p79
I0
sbag2
(g10
g4
Ntp80
Rp81
(dp82
g70
I00
sg71
Nsg72
S'move_all_joints'
p83
sg74
(lp84
F1.078384194066639
aF-0.9042662500472112
aF-0.6487991812133203
aF1.6106964081170263
aF0.5042310621434076
aF0.9969493954918214
aF-0.6858966196770266
asg76
I0
sg77
F0.4
sg78
g23
sg79
I0
sbag2
(g10
g4
Ntp85
Rp86
(dp87
S'has_constraint'
p88
I00
sS'pose'
p89
NsS'step_type'
p90
S'move_gripper'
p91
sS'all_joint_states'
p92
(lp93
sS'joint_value'
p94
I0
sS'torso_height'
p95
F0.4
sS'joint_name'
p96
g23
sS'gripper_state'
p97
I0
sbag2
(g10
g4
Ntp98
Rp99
(dp100
S'has_constraint'
p101
I00
sS'pose'
p102
g2
(cgeometry_msgs.msg._PoseStamped
PoseStamped
p103
g4
Ntp104
Rp105
(lp106
g2
(cstd_msgs.msg._Header
Header
p107
g4
Ntp108
Rp109
(lp110
I0
ag2
(cgenpy.rostime
Time
p111
g4
Ntp112
Rp113
(lp114
I0
aI0
abaS'handle'
p115
abag2
(cgeometry_msgs.msg._Pose
Pose
p116
g4
Ntp117
Rp118
(lp119
g2
(cgeometry_msgs.msg._Point
Point
p120
g4
Ntp121
Rp122
(lp123
cnumpy.core.multiarray
scalar
p124
(cnumpy
dtype
p125
(S'f8'
p126
I0
I1
tp127
Rp128
(I3
S'<'
p129
NNNI-1
I-1
I0
tp130
bS'\x00\xfe\x87\x8d! h\xbf'
p131
tp132
Rp133
ag124
(g128
S'p1 \x8c\xf8\x1eg?'
p134
tp135
Rp136
ag124
(g128
S'p\x9b\xf9\x80\xdf\xfd\xc0?'
p137
tp138
Rp139
abag2
(cgeometry_msgs.msg._Quaternion
Quaternion
p140
g4
Ntp141
Rp142
(lp143
g124
(g128
S'\xff7\xa7\xe3\xe2\xaa\xe6?'
p144
tp145
Rp146
ag124
(g128
S'\xe5\x12\x1c\x7f\xebh\xa1?'
p147
tp148
Rp149
ag124
(g128
S'\xfa\xc6\xbe\xcb\x96\x7f\xe6\xbf'
p150
tp151
Rp152
ag124
(g128
S'\\\x8a\xc0\x00E\xe0\xaa?'
p153
tp154
Rp155
abababsS'step_type'
p156
S'move_arm'
p157
sS'all_joint_states'
p158
(lp159
sS'joint_value'
p160
I0
sS'torso_height'
p161
F0.3737436532974243
sS'joint_name'
p162
g23
sS'gripper_state'
p163
I0
sbag2
(g10
g4
Ntp164
Rp165
(dp166
g101
I00
sg102
g2
(g103
g4
Ntp167
Rp168
(lp169
g2
(g107
g4
Ntp170
Rp171
(lp172
I0
ag2
(g111
g4
Ntp173
Rp174
(lp175
I0
aI0
abaS'handle'
p176
abag2
(g116
g4
Ntp177
Rp178
(lp179
g2
(g120
g4
Ntp180
Rp181
(lp182
g124
(g128
S'\x00P.\t\x9e\xc3P?'
p183
tp184
Rp185
ag124
(g128
S'P*\x9b\x157rd?'
p186
tp187
Rp188
ag124
(g128
S'P^\xf3\x9c\x1a\xd4\xa2?'
p189
tp190
Rp191
abag2
(g140
g4
Ntp192
Rp193
(lp194
g124
(g128
S'2\xb9G\x04\xa9\xd3\xe6?'
p195
tp196
Rp197
ag124
(g128
S'\x14\x99y\xd6\x0e\x99\xa3?'
p198
tp199
Rp200
ag124
(g128
S'1\x1f \xf8\xe5T\xe6\xbf'
p201
tp202
Rp203
ag124
(g128
S'\x89\xcdoA\rv\xaa?'
p204
tp205
Rp206
abababsg156
g157
sg158
(lp207
sg160
I0
sg161
F0.3737283945083618
sg162
g23
sg163
I0
sbag2
(g10
g4
Ntp208
Rp209
(dp210
g88
I00
sg89
Nsg90
g91
sg92
(lp211
sg94
I0
sg95
F0.4
sg96
g23
sg97
I1
sbag2
(g10
g4
Ntp212
Rp213
(dp214
S'has_constraint'
p215
I00
sS'torso_height'
p216
F0.34366074204444885
sS'pose'
p217
g2
(g103
g4
Ntp218
Rp219
(lp220
g2
(g107
g4
Ntp221
Rp222
(lp223
I0
ag2
(g111
g4
Ntp224
Rp225
(lp226
I0
aI0
abaS'handle'
p227
abag2
(g116
g4
Ntp228
Rp229
(lp230
g2
(g120
g4
Ntp231
Rp232
(lp233
g124
(g128
S'\x00\xc0\x16\x1d\x9a\xf1\x07\xbf'
p234
tp235
Rp236
ag124
(g128
S'\x00\x99\x110K\xeaH?'
p237
tp238
Rp239
ag124
(g128
S'\xe0\xf3)\x91\xbb\x8f\xc0?'
p240
tp241
Rp242
abag2
(g140
g4
Ntp243
Rp244
(lp245
g124
(g128
S'\xfa\xd1U\xacy\xc4\xe6?'
p246
tp247
Rp248
ag124
(g128
S'\x82\x0c\x926\x8e\xd0p\xbf'
p249
tp250
Rp251
ag124
(g128
S'\x903\x0c\xb2\xcf{\xe6\xbf'
p252
tp253
Rp254
ag124
(g128
S'\nj\xa2\xa1\x8cG\x85?'
p255
tp256
Rp257
abababsS'step_type'
p258
S'move_arm'
p259
sS'gripper_state'
p260
I1
sbag2
(g10
g4
Ntp261
Rp262
(dp263
g51
I00
sg52
Nsg53
g54
sg55
(lp264
F0.21404155756835938
aF-0.7024518008496093
aF-0.6332944703900146
aF1.6175898924682617
aF0.6305161452186584
aF0.8698963011169434
aF-0.685180747026825
asg57
I0
sg58
F0.4
sg59
g23
sg60
I0
sbasbsS'place'
p265
g2
(g3
g4
Ntp266
Rp267
(dp268
S'steps'
p269
(lp270
g2
(g10
g4
Ntp271
Rp272
(dp273
S'has_constraint'
p274
I00
sS'pose'
p275
g2
(g103
g4
Ntp276
Rp277
(lp278
g2
(g107
g4
Ntp279
Rp280
(lp281
I0
ag2
(g111
g4
Ntp282
Rp283
(lp284
I0
aI0
abaS'base_link'
p285
abag2
(g116
g4
Ntp286
Rp287
(lp288
g2
(g120
g4
Ntp289
Rp290
(lp291
F0.6487195659652013
aF-0.10944479376061111
aF0.812608048425506
abag2
(g140
g4
Ntp292
Rp293
(lp294
F-0.0010233116271834647
aF0.7040863411781019
aF0.000343956763379865
aF0.7101135533796635
abababsg258
g259
sS'all_joint_states'
p295
(lp296
sS'joint_value'
p297
I0
sS'torso_height'
p298
F0.39280200004577637
sS'joint_name'
p299
g23
sS'gripper_state'
p300
I1
sbag2
(g10
g4
Ntp301
Rp302
(dp303
g274
I00
sg275
g2
(g103
g4
Ntp304
Rp305
(lp306
g2
(g107
g4
Ntp307
Rp308
(lp309
I0
ag2
(g111
g4
Ntp310
Rp311
(lp312
I0
aI0
abaS'base_link'
p313
abag2
(g116
g4
Ntp314
Rp315
(lp316
g2
(g120
g4
Ntp317
Rp318
(lp319
F0.6479011865458513
aF-0.11048471646369518
aF0.7696215898549699
abag2
(g140
g4
Ntp320
Rp321
(lp322
F-0.0010998470040518304
aF0.7065075132614367
aF-0.0035736726670050497
aF0.7076956640430813
abababsg258
g259
sg295
(lp323
sg297
I0
sg298
F0.39280200004577637
sg299
g23
sg300
I1
sbag2
(g10
g4
Ntp324
Rp325
(dp326
g274
I00
sg275
g2
(g103
g4
Ntp327
Rp328
(lp329
g2
(g107
g4
Ntp330
Rp331
(lp332
I0
ag2
(g111
g4
Ntp333
Rp334
(lp335
I0
aI0
abaS'base_link'
p336
abag2
(g116
g4
Ntp337
Rp338
(lp339
g2
(g120
g4
Ntp340
Rp341
(lp342
F0.6463265931200021
aF-0.1078724109234751
aF0.9006158870962271
abag2
(g140
g4
Ntp343
Rp344
(lp345
F0.0058099743203380615
aF0.7095182012149308
aF0.00014291006687164212
aF0.7046631435798517
abababsg258
g259
sg295
(lp346
sg297
I0
sg298
F0.39280200004577637
sg299
g23
sg300
I0
sbasbsS'close'
p347
g2
(g3
g4
Ntp348
Rp349
(dp350
S'steps'
p351
(lp352
g2
(g10
g4
Ntp353
Rp354
(dp355
S'has_constraint'
p356
I00
sS'pose'
p357
NsS'step_type'
p358
S'move_gripper'
p359
sS'all_joint_states'
p360
(lp361
sS'joint_value'
p362
I0
sS'torso_height'
p363
F0.4
sS'joint_name'
p364
g23
sS'gripper_state'
p365
I1
sbasbs.