(dp0
S'high-five'
p1
ccopy_reg
_reconstructor
p2
(cprogram_ctrl
Program
p3
c__builtin__
object
p4
Ntp5
Rp6
(dp7
S'steps'
p8
(lp9
g2
(cprogram_ctrl
ProgramStep
p10
g4
Ntp11
Rp12
(dp13
S'has_constraint'
p14
I00
sS'pose'
p15
NsS'step_type'
p16
S'move_all_joints'
p17
sS'all_joint_states'
p18
(lp19
F1.0351050760925293
aF-0.04705820038574219
aF-0.6336771918141174
aF0.39922565372924806
aF0.6308996415031433
aF-1.9135128175354004
aF-0.03745736166114509
asS'joint_value'
p20
I0
sS'torso_height'
p21
F0.4
sS'joint_name'
p22
S''
p23
sS'gripper_state'
p24
I0
sbag2
(g10
g4
Ntp25
Rp26
(dp27
g14
I00
sg15
Nsg16
g17
sg18
(lp28
F0.9031827714622498
aF-0.29939804032104494
aF-0.6329109741055298
aF0.400375784954834
aF0.6301326489341735
aF-1.1990605508422851
aF-0.038991342375302315
asg20
I0
sg21
F0.4
sg22
g23
sg24
I0
sbasbsS'start'
p29
g2
(g3
g4
Ntp30
Rp31
(dp32
S'steps'
p33
(lp34
g2
(g10
g4
Ntp35
Rp36
(dp37
S'has_constraint'
p38
I00
sS'pose'
p39
NsS'step_type'
p40
S'move_torso'
p41
sS'all_joint_states'
p42
(lp43
sS'joint_value'
p44
I0
sS'torso_height'
p45
F0.38610494964669956
sS'joint_name'
p46
g23
sS'gripper_state'
p47
I0
sbag2
(g10
g4
Ntp48
Rp49
(dp50
S'has_constraint'
p51
I00
sS'pose'
p52
NsS'step_type'
p53
S'move_all_joints'
p54
sS'all_joint_states'
p55
(lp56
F1.0784400370300293
aF-0.9041701312329101
aF-0.6490170431935119
aF1.610686720928955
aF0.504346225251007
aF0.9968332136535645
aF-0.6859477395957947
asS'joint_value'
p57
I0
sS'torso_height'
p58
F0.4
sS'joint_name'
p59
g23
sS'gripper_state'
p60
I0
sbasbsS'retrieve'
p61
g2
(g3
g4
Ntp62
Rp63
(dp64
S'steps'
p65
(lp66
g2
(g10
g4
Ntp67
Rp68
(dp69
S'has_constraint'
p70
I00
sS'pose'
p71
NsS'step_type'
p72
S'move_torso'
p73
sS'all_joint_states'
p74
(lp75
sS'joint_value'
p76
I0
sS'torso_height'
p77
F0.37998115496979673
sS'joint_name'
p78
g23
sS'gripper_state'
p79
I0
sbag2
(g10
g4
Ntp80
Rp81
(dp82
S'has_constraint'
p83
I00
sS'pose'
p84
NsS'step_type'
p85
S'move_all_joints'
p86
sS'all_joint_states'
p87
(lp88
F1.0784400370300293
aF-0.9034033770825195
aF-0.6490170431935119
aF1.6103033438537597
aF0.5035792326820373
aF0.9964498365783692
aF-0.6855644221252442
asS'joint_value'
p89
I0
sS'torso_height'
p90
F0.4
sS'joint_name'
p91
g23
sS'gripper_state'
p92
I0
sbag2
(g10
g4
Ntp93
Rp94
(dp95
S'has_constraint'
p96
I00
sS'pose'
p97
NsS'step_type'
p98
S'move_gripper'
p99
sS'all_joint_states'
p100
(lp101
sS'joint_value'
p102
I0
sS'torso_height'
p103
F0.4
sS'joint_name'
p104
g23
sS'gripper_state'
p105
I0
sbag2
(g10
g4
Ntp106
Rp107
(dp108
g83
I00
sg84
Nsg85
g86
sg87
(lp109
F0.26466324593429563
aF-0.9041701312329101
aF-0.6490170431935119
aF1.610686720928955
aF0.5047297215354919
aF0.9960659826660156
aF-0.6859477395957947
asg89
I0
sg90
F0.4
sg91
g23
sg92
I0
sbag2
(g10
g4
Ntp110
Rp111
(dp112
g83
I00
sg84
g2
(cgeometry_msgs.msg._PoseStamped
PoseStamped
p113
g4
Ntp114
Rp115
(lp116
g2
(cstd_msgs.msg._Header
Header
p117
g4
Ntp118
Rp119
(lp120
I0
ag2
(cgenpy.rostime
Time
p121
g4
Ntp122
Rp123
(lp124
I0
aI0
abaS'handle'
p125
abag2
(cgeometry_msgs.msg._Pose
Pose
p126
g4
Ntp127
Rp128
(lp129
g2
(cgeometry_msgs.msg._Point
Point
p130
g4
Ntp131
Rp132
(lp133
cnumpy.core.multiarray
scalar
p134
(cnumpy
dtype
p135
(S'f8'
p136
I0
I1
tp137
Rp138
(I3
S'<'
p139
NNNI-1
I-1
I0
tp140
bS'\x00\xa0\x16\xd1u#a\xbf'
p141
tp142
Rp143
ag134
(g138
S'\x002G\x05\x1dy\x13?'
p144
tp145
Rp146
ag134
(g138
S'\xf0s\xef\xd3\x97\xfc\xc0?'
p147
tp148
Rp149
abag2
(cgeometry_msgs.msg._Quaternion
Quaternion
p150
g4
Ntp151
Rp152
(lp153
g134
(g138
S'\xa0\xe5\xd0\xfb\xce\xbb\xe6?'
p154
tp155
Rp156
ag134
(g138
S'\xc0\xa8V\xc1\xe0z\x98\xbf'
p157
tp158
Rp159
ag134
(g138
S'\x92\x87\x87\xd2\xb8\x80\xe6\xbf'
p160
tp161
Rp162
ag134
(g138
S'\xdd\x11O-\xd4\x05\x8e\xbf'
p163
tp164
Rp165
abababsg85
S'move_arm'
p166
sg87
(lp167
sg89
I0
sg90
F0.37965646386146545
sg91
g23
sg92
I0
sbag2
(g10
g4
Ntp168
Rp169
(dp170
S'has_constraint'
p171
I00
sS'pose'
p172
g2
(g113
g4
Ntp173
Rp174
(lp175
g2
(g117
g4
Ntp176
Rp177
(lp178
I0
ag2
(g121
g4
Ntp179
Rp180
(lp181
I0
aI0
abaS'handle'
p182
abag2
(g126
g4
Ntp183
Rp184
(lp185
g2
(g130
g4
Ntp186
Rp187
(lp188
g134
(g138
S'\x00\x9eL\xb7N\xa0X\xbf'
p189
tp190
Rp191
ag134
(g138
S'\x00\x8e\xc0\x10\x8d\xdcY\xbf'
p192
tp193
Rp194
ag134
(g138
S'\xe0Lu\xf4\xb6\x8b\xa6?'
p195
tp196
Rp197
abag2
(g150
g4
Ntp198
Rp199
(lp200
g134
(g138
S'%gD\xb3(\xa9\xe6?'
p201
tp202
Rp203
ag134
(g138
S'\x1d\xda\x91\x97P\x96\xa4\xbf'
p204
tp205
Rp206
ag134
(g138
S'F\xebz@\xac\x81\xe6\xbf'
p207
tp208
Rp209
ag134
(g138
S'\x9a-V\xac\xab5\xa8\xbf'
p210
tp211
Rp212
abababsS'step_type'
p213
S'move_arm'
p214
sS'all_joint_states'
p215
(lp216
sS'joint_value'
p217
I0
sS'torso_height'
p218
F0.3796488344669342
sS'joint_name'
p219
g23
sS'gripper_state'
p220
I0
sbag2
(g10
g4
Ntp221
Rp222
(dp223
g96
I00
sg97
Nsg98
g99
sg100
(lp224
sg102
I0
sg103
F0.4
sg104
g23
sg105
I1
sbag2
(g10
g4
Ntp225
Rp226
(dp227
S'has_constraint'
p228
I00
sS'torso_height'
p229
F0.34366074204444885
sS'pose'
p230
g2
(g113
g4
Ntp231
Rp232
(lp233
g2
(g117
g4
Ntp234
Rp235
(lp236
I0
ag2
(g121
g4
Ntp237
Rp238
(lp239
I0
aI0
abaS'handle'
p240
abag2
(g126
g4
Ntp241
Rp242
(lp243
g2
(g130
g4
Ntp244
Rp245
(lp246
g134
(g138
S'\x00\xc0\x16\x1d\x9a\xf1\x07\xbf'
p247
tp248
Rp249
ag134
(g138
S'\x00\x99\x110K\xeaH?'
p250
tp251
Rp252
ag134
(g138
S'\xe0\xf3)\x91\xbb\x8f\xc0?'
p253
tp254
Rp255
abag2
(g150
g4
Ntp256
Rp257
(lp258
g134
(g138
S'\xfa\xd1U\xacy\xc4\xe6?'
p259
tp260
Rp261
ag134
(g138
S'\x82\x0c\x926\x8e\xd0p\xbf'
p262
tp263
Rp264
ag134
(g138
S'\x903\x0c\xb2\xcf{\xe6\xbf'
p265
tp266
Rp267
ag134
(g138
S'\nj\xa2\xa1\x8cG\x85?'
p268
tp269
Rp270
abababsS'step_type'
p271
S'move_arm'
p272
sS'gripper_state'
p273
I1
sbag2
(g10
g4
Ntp274
Rp275
(dp276
g51
I00
sg52
Nsg53
g54
sg55
(lp277
F0.21404155756835938
aF-0.7024518008496093
aF-0.6332944703900146
aF1.6175898924682617
aF0.6305161452186584
aF0.8698963011169434
aF-0.685180747026825
asg57
I0
sg58
F0.4
sg59
g23
sg60
I0
sbasbsS'place'
p278
g2
(g3
g4
Ntp279
Rp280
(dp281
S'steps'
p282
(lp283
g2
(g10
g4
Ntp284
Rp285
(dp286
S'has_constraint'
p287
I00
sS'pose'
p288
g2
(g113
g4
Ntp289
Rp290
(lp291
g2
(g117
g4
Ntp292
Rp293
(lp294
I0
ag2
(g121
g4
Ntp295
Rp296
(lp297
I0
aI0
abaS'base_link'
p298
abag2
(g126
g4
Ntp299
Rp300
(lp301
g2
(g130
g4
Ntp302
Rp303
(lp304
F0.6487195659652013
aF-0.10944479376061111
aF0.812608048425506
abag2
(g150
g4
Ntp305
Rp306
(lp307
F-0.0010233116271834647
aF0.7040863411781019
aF0.000343956763379865
aF0.7101135533796635
abababsg271
g272
sS'all_joint_states'
p308
(lp309
sS'joint_value'
p310
I0
sS'torso_height'
p311
F0.39280200004577637
sS'joint_name'
p312
g23
sS'gripper_state'
p313
I1
sbag2
(g10
g4
Ntp314
Rp315
(dp316
g287
I00
sg288
g2
(g113
g4
Ntp317
Rp318
(lp319
g2
(g117
g4
Ntp320
Rp321
(lp322
I0
ag2
(g121
g4
Ntp323
Rp324
(lp325
I0
aI0
abaS'base_link'
p326
abag2
(g126
g4
Ntp327
Rp328
(lp329
g2
(g130
g4
Ntp330
Rp331
(lp332
F0.6479011865458513
aF-0.11048471646369518
aF0.7696215898549699
abag2
(g150
g4
Ntp333
Rp334
(lp335
F-0.0010998470040518304
aF0.7065075132614367
aF-0.0035736726670050497
aF0.7076956640430813
abababsg271
g272
sg308
(lp336
sg310
I0
sg311
F0.39280200004577637
sg312
g23
sg313
I1
sbag2
(g10
g4
Ntp337
Rp338
(dp339
g171
I00
sg172
Nsg213
S'move_gripper'
p340
sg215
(lp341
sg217
I0
sg218
F0.4
sg219
g23
sg220
I0
sbag2
(g10
g4
Ntp342
Rp343
(dp344
g287
I00
sg288
g2
(g113
g4
Ntp345
Rp346
(lp347
g2
(g117
g4
Ntp348
Rp349
(lp350
I0
ag2
(g121
g4
Ntp351
Rp352
(lp353
I0
aI0
abaS'base_link'
p354
abag2
(g126
g4
Ntp355
Rp356
(lp357
g2
(g130
g4
Ntp358
Rp359
(lp360
F0.6463265931200021
aF-0.1078724109234751
aF0.9006158870962271
abag2
(g150
g4
Ntp361
Rp362
(lp363
F0.0058099743203380615
aF0.7095182012149308
aF0.00014291006687164212
aF0.7046631435798517
abababsg271
g272
sg308
(lp364
sg310
I0
sg311
F0.39280200004577637
sg312
g23
sg313
I0
sbasbsS'close'
p365
g2
(g3
g4
Ntp366
Rp367
(dp368
S'steps'
p369
(lp370
g2
(g10
g4
Ntp371
Rp372
(dp373
S'has_constraint'
p374
I00
sS'pose'
p375
NsS'step_type'
p376
S'move_gripper'
p377
sS'all_joint_states'
p378
(lp379
sS'joint_value'
p380
I0
sS'torso_height'
p381
F0.4
sS'joint_name'
p382
g23
sS'gripper_state'
p383
I1
sbasbs.