(dp0
S'start2'
p1
ccopy_reg
_reconstructor
p2
(cprogram_ctrl
Program
p3
c__builtin__
object
p4
Ntp5
Rp6
(dp7
S'steps'
p8
(lp9
g2
(cprogram_ctrl
ProgramStep
p10
g4
Ntp11
Rp12
(dp13
S'has_constraint'
p14
I00
sS'pose'
p15
NsS'step_type'
p16
S'move_torso'
p17
sS'all_joint_states'
p18
(lp19
sS'joint_value'
p20
I0
sS'torso_height'
p21
F0.38610494964669956
sS'joint_name'
p22
S''
p23
sS'gripper_state'
p24
I0
sbag2
(g10
g4
Ntp25
Rp26
(dp27
S'has_constraint'
p28
I00
sS'pose'
p29
NsS'step_type'
p30
S'move_all_joints'
p31
sS'all_joint_states'
p32
(lp33
F1.0784400370300293
aF-0.9041701312329101
aF-0.6490170431935119
aF1.610686720928955
aF0.504346225251007
aF0.9968332136535645
aF-0.6859477395957947
asS'joint_value'
p34
I0
sS'torso_height'
p35
F0.4
sS'joint_name'
p36
g23
sS'gripper_state'
p37
I0
sbasbsS'retrieve'
p38
g2
(g3
g4
Ntp39
Rp40
(dp41
S'steps'
p42
(lp43
g2
(g10
g4
Ntp44
Rp45
(dp46
S'has_constraint'
p47
I00
sS'pose'
p48
NsS'step_type'
p49
S'move_torso'
p50
sS'all_joint_states'
p51
(lp52
sS'joint_value'
p53
I0
sS'torso_height'
p54
F0.37998115496979673
sS'joint_name'
p55
g23
sS'gripper_state'
p56
I0
sbag2
(g10
g4
Ntp57
Rp58
(dp59
g47
I00
sg48
Nsg49
S'move_all_joints'
p60
sg51
(lp61
F1.078384194066639
aF-0.9042662500472112
aF-0.6487991812133203
aF1.6106964081170263
aF0.5042310621434076
aF0.9969493954918214
aF-0.6858966196770266
asg53
I0
sg54
F0.4
sg55
g23
sg56
I0
sbag2
(g10
g4
Ntp62
Rp63
(dp64
S'has_constraint'
p65
I00
sS'torso_height'
p66
F0.3436836302280426
sS'pose'
p67
g2
(cgeometry_msgs.msg._PoseStamped
PoseStamped
p68
g4
Ntp69
Rp70
(lp71
g2
(cstd_msgs.msg._Header
Header
p72
g4
Ntp73
Rp74
(lp75
I0
ag2
(cgenpy.rostime
Time
p76
g4
Ntp77
Rp78
(lp79
I0
aI0
abaS'handle'
p80
abag2
(cgeometry_msgs.msg._Pose
Pose
p81
g4
Ntp82
Rp83
(lp84
g2
(cgeometry_msgs.msg._Point
Point
p85
g4
Ntp86
Rp87
(lp88
cnumpy.core.multiarray
scalar
p89
(cnumpy
dtype
p90
(S'f8'
p91
I0
I1
tp92
Rp93
(I3
S'<'
p94
NNNI-1
I-1
I0
tp95
bS'\x00`\xb0\x06\x93\xe4\x1b\xbf'
p96
tp97
Rp98
ag89
(g93
S'\xd0\x00\x19e\x8bGj?'
p99
tp100
Rp101
ag89
(g93
S'\x00N\x07\xecY\x0f\xc1?'
p102
tp103
Rp104
abag2
(cgeometry_msgs.msg._Quaternion
Quaternion
p105
g4
Ntp106
Rp107
(lp108
g89
(g93
S'\xd6HL\xd71\xaf\xe6?'
p109
tp110
Rp111
ag89
(g93
S'~,d\xd0\x10\x82\xab\xbf'
p112
tp113
Rp114
ag89
(g93
S'\xfb\xe3t\xaf)v\xe6\xbf'
p115
tp116
Rp117
ag89
(g93
S'\xa1-H\xd9\xeeK\xa6\xbf'
p118
tp119
Rp120
abababsS'step_type'
p121
S'move_arm'
p122
sS'gripper_state'
p123
I0
sbag2
(g10
g4
Ntp124
Rp125
(dp126
g65
I00
sg66
F0.34367600083351135
sg67
g2
(g68
g4
Ntp127
Rp128
(lp129
g2
(g72
g4
Ntp130
Rp131
(lp132
I0
ag2
(g76
g4
Ntp133
Rp134
(lp135
I0
aI0
abaS'handle'
p136
abag2
(g81
g4
Ntp137
Rp138
(lp139
g2
(g85
g4
Ntp140
Rp141
(lp142
g89
(g93
S'\x00\xf0Yf\xbeOU\xbf'
p143
tp144
Rp145
ag89
(g93
S' B\xf5F\xee%`?'
p146
tp147
Rp148
ag89
(g93
S'\x00n\x90^\xe2`\xa7?'
p149
tp150
Rp151
abag2
(g105
g4
Ntp152
Rp153
(lp154
g89
(g93
S'f\x86\x10T0\xab\xe6?'
p155
tp156
Rp157
ag89
(g93
S'7\x11eu\x15MO?'
p158
tp159
Rp160
ag89
(g93
S'e\t\x8eL\xe7\x95\xe6\xbf'
p161
tp162
Rp163
ag89
(g93
S'\xa4%\xe0\xfc\xe5\xabr?'
p164
tp165
Rp166
abababsg121
g122
sg123
I0
sbag2
(g10
g4
Ntp167
Rp168
(dp169
g65
I00
sg66
F0.3436531126499176
sg67
g2
(g68
g4
Ntp170
Rp171
(lp172
g2
(g72
g4
Ntp173
Rp174
(lp175
I0
ag2
(g76
g4
Ntp176
Rp177
(lp178
I0
aI0
abaS'handle'
p179
abag2
(g81
g4
Ntp180
Rp181
(lp182
g2
(g85
g4
Ntp183
Rp184
(lp185
g89
(g93
S'\x00v\x1e\xbbM\xdbP\xbf'
p186
tp187
Rp188
ag89
(g93
S'\x00\xdc\xe5:x\xdbc?'
p189
tp190
Rp191
ag89
(g93
S'\x10\xdd\x1e\xe5\x1d\x14\xa7?'
p192
tp193
Rp194
abag2
(g105
g4
Ntp195
Rp196
(lp197
g89
(g93
S'\xe5\xe6\xdd(,\xae\xe6?'
p198
tp199
Rp200
ag89
(g93
S'\xe39\xdf,A*G?'
p201
tp202
Rp203
ag89
(g93
S'4ey\xab\xef\x92\xe6\xbf'
p204
tp205
Rp206
ag89
(g93
S'\xfc\xe7\xb6\x85d}p?'
p207
tp208
Rp209
abababsg121
g122
sg123
I1
sbag2
(g10
g4
Ntp210
Rp211
(dp212
g65
I00
sg66
F0.34366074204444885
sg67
g2
(g68
g4
Ntp213
Rp214
(lp215
g2
(g72
g4
Ntp216
Rp217
(lp218
I0
ag2
(g76
g4
Ntp219
Rp220
(lp221
I0
aI0
abaS'handle'
p222
abag2
(g81
g4
Ntp223
Rp224
(lp225
g2
(g85
g4
Ntp226
Rp227
(lp228
g89
(g93
S'\x00\xc0\x16\x1d\x9a\xf1\x07\xbf'
p229
tp230
Rp231
ag89
(g93
S'\x00\x99\x110K\xeaH?'
p232
tp233
Rp234
ag89
(g93
S'\xe0\xf3)\x91\xbb\x8f\xc0?'
p235
tp236
Rp237
abag2
(g105
g4
Ntp238
Rp239
(lp240
g89
(g93
S'\xfa\xd1U\xacy\xc4\xe6?'
p241
tp242
Rp243
ag89
(g93
S'\x82\x0c\x926\x8e\xd0p\xbf'
p244
tp245
Rp246
ag89
(g93
S'\x903\x0c\xb2\xcf{\xe6\xbf'
p247
tp248
Rp249
ag89
(g93
S'\nj\xa2\xa1\x8cG\x85?'
p250
tp251
Rp252
abababsg121
g122
sg123
I1
sbag2
(g10
g4
Ntp253
Rp254
(dp255
g28
I00
sg29
Nsg30
g31
sg32
(lp256
F0.21404155756835938
aF-0.7024518008496093
aF-0.6332944703900146
aF1.6175898924682617
aF0.6305161452186584
aF0.8698963011169434
aF-0.685180747026825
asg34
I0
sg35
F0.4
sg36
g23
sg37
I0
sbasbsS'place'
p257
g2
(g3
g4
Ntp258
Rp259
(dp260
S'steps'
p261
(lp262
g2
(g10
g4
Ntp263
Rp264
(dp265
S'has_constraint'
p266
I00
sS'pose'
p267
g2
(g68
g4
Ntp268
Rp269
(lp270
g2
(g72
g4
Ntp271
Rp272
(lp273
I0
ag2
(g76
g4
Ntp274
Rp275
(lp276
I0
aI0
abaS'base_link'
p277
abag2
(g81
g4
Ntp278
Rp279
(lp280
g2
(g85
g4
Ntp281
Rp282
(lp283
F0.6487195659652013
aF-0.10944479376061111
aF0.812608048425506
abag2
(g105
g4
Ntp284
Rp285
(lp286
F-0.0010233116271834647
aF0.7040863411781019
aF0.000343956763379865
aF0.7101135533796635
abababsg121
g122
sS'all_joint_states'
p287
(lp288
sS'joint_value'
p289
I0
sS'torso_height'
p290
F0.39280200004577637
sS'joint_name'
p291
g23
sS'gripper_state'
p292
I1
sbag2
(g10
g4
Ntp293
Rp294
(dp295
g266
I00
sg267
g2
(g68
g4
Ntp296
Rp297
(lp298
g2
(g72
g4
Ntp299
Rp300
(lp301
I0
ag2
(g76
g4
Ntp302
Rp303
(lp304
I0
aI0
abaS'base_link'
p305
abag2
(g81
g4
Ntp306
Rp307
(lp308
g2
(g85
g4
Ntp309
Rp310
(lp311
F0.6479011865458513
aF-0.11048471646369518
aF0.7696215898549699
abag2
(g105
g4
Ntp312
Rp313
(lp314
F-0.0010998470040518304
aF0.7065075132614367
aF-0.0035736726670050497
aF0.7076956640430813
abababsg121
g122
sg287
(lp315
sg289
I0
sg290
F0.39280200004577637
sg291
g23
sg292
I1
sbag2
(g10
g4
Ntp316
Rp317
(dp318
g266
I00
sg267
g2
(g68
g4
Ntp319
Rp320
(lp321
g2
(g72
g4
Ntp322
Rp323
(lp324
I0
ag2
(g76
g4
Ntp325
Rp326
(lp327
I0
aI0
abaS'base_link'
p328
abag2
(g81
g4
Ntp329
Rp330
(lp331
g2
(g85
g4
Ntp332
Rp333
(lp334
F0.6479603325140825
aF-0.10968566668102837
aF0.769567490140375
abag2
(g105
g4
Ntp335
Rp336
(lp337
F-0.0004130392736089599
aF0.706589450448042
aF-0.0029409248629431385
aF0.7076175018151001
abababsg121
g122
sg287
(lp338
sg289
I0
sg290
F0.39280200004577637
sg291
g23
sg292
I0
sbag2
(g10
g4
Ntp339
Rp340
(dp341
g266
I00
sg267
g2
(g68
g4
Ntp342
Rp343
(lp344
g2
(g72
g4
Ntp345
Rp346
(lp347
I0
ag2
(g76
g4
Ntp348
Rp349
(lp350
I0
aI0
abaS'base_link'
p351
abag2
(g81
g4
Ntp352
Rp353
(lp354
g2
(g85
g4
Ntp355
Rp356
(lp357
F0.6463265931200021
aF-0.1078724109234751
aF0.9006158870962271
abag2
(g105
g4
Ntp358
Rp359
(lp360
F0.0058099743203380615
aF0.7095182012149308
aF0.00014291006687164212
aF0.7046631435798517
abababsg121
g122
sg287
(lp361
sg289
I0
sg290
F0.39280200004577637
sg291
g23
sg292
I0
sbasbsS'high-five'
p362
g2
(g3
g4
Ntp363
Rp364
(dp365
S'steps'
p366
(lp367
g2
(g10
g4
Ntp368
Rp369
(dp370
S'has_constraint'
p371
I00
sS'pose'
p372
NsS'step_type'
p373
S'move_all_joints'
p374
sS'all_joint_states'
p375
(lp376
F1.0351050760925293
aF-0.04705820038574219
aF-0.6336771918141174
aF0.39922565372924806
aF0.6308996415031433
aF-1.9135128175354004
aF-0.03745736166114509
asS'joint_value'
p377
I0
sS'torso_height'
p378
F0.4
sS'joint_name'
p379
g23
sS'gripper_state'
p380
I0
sbag2
(g10
g4
Ntp381
Rp382
(dp383
g371
I00
sg372
Nsg373
g374
sg375
(lp384
F0.9031827714622498
aF-0.29939804032104494
aF-0.6329109741055298
aF0.400375784954834
aF0.6301326489341735
aF-1.1990605508422851
aF-0.038991342375302315
asg377
I0
sg378
F0.4
sg379
g23
sg380
I0
sbasbs.