(dp0
S'high-five'
p1
ccopy_reg
_reconstructor
p2
(cprogram_ctrl
Program
p3
c__builtin__
object
p4
Ntp5
Rp6
(dp7
S'steps'
p8
(lp9
g2
(cprogram_ctrl
ProgramStep
p10
g4
Ntp11
Rp12
(dp13
S'has_constraint'
p14
I00
sS'pose'
p15
NsS'step_type'
p16
S'move_all_joints'
p17
sS'all_joint_states'
p18
(lp19
F1.0351050760925293
aF-0.04705820038574219
aF-0.6336771918141174
aF0.39922565372924806
aF0.6308996415031433
aF-1.9135128175354004
aF-0.03745736166114509
asS'joint_value'
p20
I0
sS'torso_height'
p21
F0.4
sS'joint_name'
p22
S''
p23
sS'gripper_state'
p24
I0
sbag2
(g10
g4
Ntp25
Rp26
(dp27
g14
I00
sg15
Nsg16
g17
sg18
(lp28
F0.9031827714622498
aF-0.29939804032104494
aF-0.6329109741055298
aF0.400375784954834
aF0.6301326489341735
aF-1.1990605508422851
aF-0.038991342375302315
asg20
I0
sg21
F0.4
sg22
g23
sg24
I0
sbasbsS'start'
p29
g2
(g3
g4
Ntp30
Rp31
(dp32
S'steps'
p33
(lp34
g2
(g10
g4
Ntp35
Rp36
(dp37
S'has_constraint'
p38
I00
sS'pose'
p39
NsS'step_type'
p40
S'move_torso'
p41
sS'all_joint_states'
p42
(lp43
sS'joint_value'
p44
I0
sS'torso_height'
p45
F0.38610494964669956
sS'joint_name'
p46
g23
sS'gripper_state'
p47
I0
sbag2
(g10
g4
Ntp48
Rp49
(dp50
S'has_constraint'
p51
I00
sS'pose'
p52
NsS'step_type'
p53
S'move_all_joints'
p54
sS'all_joint_states'
p55
(lp56
F0.8514108922660828
aF-0.8692723269726562
aF-0.040793623557024004
aF1.0622887030456543
aF-0.003401421170186998
aF1.3918331945800781
aF-0.14215174418153764
asS'joint_value'
p57
I0
sS'torso_height'
p58
F0.4
sS'joint_name'
p59
g23
sS'gripper_state'
p60
I0
sbasbsS'retrieve'
p61
g2
(g3
g4
Ntp62
Rp63
(dp64
S'steps'
p65
(lp66
g2
(g10
g4
Ntp67
Rp68
(dp69
S'has_constraint'
p70
I00
sS'pose'
p71
NsS'step_type'
p72
S'move_torso'
p73
sS'all_joint_states'
p74
(lp75
sS'joint_value'
p76
I0
sS'torso_height'
p77
F0.37998115496979673
sS'joint_name'
p78
g23
sS'gripper_state'
p79
I0
sbag2
(g10
g4
Ntp80
Rp81
(dp82
S'has_constraint'
p83
I00
sS'pose'
p84
NsS'step_type'
p85
S'move_all_joints'
p86
sS'all_joint_states'
p87
(lp88
F0.8517943885505677
aF-0.8700390811230468
aF-0.04002738349669457
aF1.0622887030456543
aF-0.0037849174546718614
aF1.3925999487304688
aF-0.14176806163253786
asS'joint_value'
p89
I0
sS'torso_height'
p90
F0.4
sS'joint_name'
p91
g23
sS'gripper_state'
p92
I0
sbag2
(g10
g4
Ntp93
Rp94
(dp95
S'has_constraint'
p96
I00
sS'pose'
p97
NsS'step_type'
p98
S'move_gripper'
p99
sS'all_joint_states'
p100
(lp101
sS'joint_value'
p102
I0
sS'torso_height'
p103
F0.4
sS'joint_name'
p104
g23
sS'gripper_state'
p105
I0
sbag2
(g10
g4
Ntp106
Rp107
(dp108
S'has_constraint'
p109
I01
sS'pose'
p110
g2
(cgeometry_msgs.msg._PoseStamped
PoseStamped
p111
g4
Ntp112
Rp113
(lp114
g2
(cstd_msgs.msg._Header
Header
p115
g4
Ntp116
Rp117
(lp118
I0
ag2
(cgenpy.rostime
Time
p119
g4
Ntp120
Rp121
(lp122
I0
aI0
abaS'handle'
p123
abag2
(cgeometry_msgs.msg._Pose
Pose
p124
g4
Ntp125
Rp126
(lp127
g2
(cgeometry_msgs.msg._Point
Point
p128
g4
Ntp129
Rp130
(lp131
cnumpy.core.multiarray
scalar
p132
(cnumpy
dtype
p133
(S'f8'
p134
I0
I1
tp135
Rp136
(I3
S'<'
p137
NNNI-1
I-1
I0
tp138
bS'\x00\xa0\x16\xd1u#a\xbf'
p139
tp140
Rp141
ag132
(g136
S'\x002G\x05\x1dy\x13?'
p142
tp143
Rp144
ag132
(g136
S'\xf0s\xef\xd3\x97\xfc\xc0?'
p145
tp146
Rp147
abag2
(cgeometry_msgs.msg._Quaternion
Quaternion
p148
g4
Ntp149
Rp150
(lp151
g132
(g136
S'\xa0\xe5\xd0\xfb\xce\xbb\xe6?'
p152
tp153
Rp154
ag132
(g136
S'\xc0\xa8V\xc1\xe0z\x98\xbf'
p155
tp156
Rp157
ag132
(g136
S'\x92\x87\x87\xd2\xb8\x80\xe6\xbf'
p158
tp159
Rp160
ag132
(g136
S'\xdd\x11O-\xd4\x05\x8e\xbf'
p161
tp162
Rp163
abababsS'step_type'
p164
S'move_arm'
p165
sS'all_joint_states'
p166
(lp167
sS'joint_value'
p168
I0
sS'torso_height'
p169
F0.37965646386146545
sS'joint_name'
p170
g23
sS'gripper_state'
p171
I0
sbag2
(g10
g4
Ntp172
Rp173
(dp174
S'has_constraint'
p175
I01
sS'pose'
p176
g2
(g111
g4
Ntp177
Rp178
(lp179
g2
(g115
g4
Ntp180
Rp181
(lp182
I0
ag2
(g119
g4
Ntp183
Rp184
(lp185
I0
aI0
abaS'handle'
p186
abag2
(g124
g4
Ntp187
Rp188
(lp189
g2
(g128
g4
Ntp190
Rp191
(lp192
g132
(g136
S'\x00\xe2\xb0\xdf\xe8Zl\xbf'
p193
tp194
Rp195
ag132
(g136
S'\x80\xd5\x03\xa6jZl?'
p196
tp197
Rp198
ag132
(g136
S' \x16\n\xaa \xa5\xab?'
p199
tp200
Rp201
abag2
(g148
g4
Ntp202
Rp203
(lp204
g132
(g136
S'<\xa6\x04\x0b\x8f\xfa\xe6?'
p205
tp206
Rp207
ag132
(g136
S'\xd13z\xaa\x00\x0e\xad\xbf'
p208
tp209
Rp210
ag132
(g136
S'\xf6h\xa7@"&\xe6\xbf'
p211
tp212
Rp213
ag132
(g136
S'E\xfa\xe56K4\xa7\xbf'
p214
tp215
Rp216
abababsS'step_type'
p217
S'move_arm'
p218
sS'all_joint_states'
p219
(lp220
sS'joint_value'
p221
I0
sS'torso_height'
p222
F0.37962594628334045
sS'joint_name'
p223
g23
sS'gripper_state'
p224
I0
sbag2
(g10
g4
Ntp225
Rp226
(dp227
S'has_constraint'
p228
I01
sS'pose'
p229
g2
(g111
g4
Ntp230
Rp231
(lp232
g2
(g115
g4
Ntp233
Rp234
(lp235
I0
ag2
(g119
g4
Ntp236
Rp237
(lp238
I0
aI0
abaS'handle'
p239
abag2
(g124
g4
Ntp240
Rp241
(lp242
g2
(g128
g4
Ntp243
Rp244
(lp245
g132
(g136
S'\x00\x9eL\xb7N\xa0X\xbf'
p246
tp247
Rp248
ag132
(g136
S'\x00\x8e\xc0\x10\x8d\xdcY\xbf'
p249
tp250
Rp251
ag132
(g136
S'\xe0Lu\xf4\xb6\x8b\xa6?'
p252
tp253
Rp254
abag2
(g148
g4
Ntp255
Rp256
(lp257
g132
(g136
S'%gD\xb3(\xa9\xe6?'
p258
tp259
Rp260
ag132
(g136
S'\x1d\xda\x91\x97P\x96\xa4\xbf'
p261
tp262
Rp263
ag132
(g136
S'F\xebz@\xac\x81\xe6\xbf'
p264
tp265
Rp266
ag132
(g136
S'\x9a-V\xac\xab5\xa8\xbf'
p267
tp268
Rp269
abababsS'step_type'
p270
S'move_arm'
p271
sS'all_joint_states'
p272
(lp273
sS'joint_value'
p274
I0
sS'torso_height'
p275
F0.3796488344669342
sS'joint_name'
p276
g23
sS'gripper_state'
p277
I0
sbag2
(g10
g4
Ntp278
Rp279
(dp280
g96
I00
sg97
Nsg98
g99
sg100
(lp281
sg102
I0
sg103
F0.4
sg104
g23
sg105
I1
sbag2
(g10
g4
Ntp282
Rp283
(dp284
S'has_constraint'
p285
I00
sS'torso_height'
p286
F0.34366074204444885
sS'pose'
p287
g2
(g111
g4
Ntp288
Rp289
(lp290
g2
(g115
g4
Ntp291
Rp292
(lp293
I0
ag2
(g119
g4
Ntp294
Rp295
(lp296
I0
aI0
abaS'handle'
p297
abag2
(g124
g4
Ntp298
Rp299
(lp300
g2
(g128
g4
Ntp301
Rp302
(lp303
g132
(g136
S'\x00\xc0\x16\x1d\x9a\xf1\x07\xbf'
p304
tp305
Rp306
ag132
(g136
S'\x00\x99\x110K\xeaH?'
p307
tp308
Rp309
ag132
(g136
S'\xe0\xf3)\x91\xbb\x8f\xc0?'
p310
tp311
Rp312
abag2
(g148
g4
Ntp313
Rp314
(lp315
g132
(g136
S'\xfa\xd1U\xacy\xc4\xe6?'
p316
tp317
Rp318
ag132
(g136
S'\x82\x0c\x926\x8e\xd0p\xbf'
p319
tp320
Rp321
ag132
(g136
S'\x903\x0c\xb2\xcf{\xe6\xbf'
p322
tp323
Rp324
ag132
(g136
S'\nj\xa2\xa1\x8cG\x85?'
p325
tp326
Rp327
abababsS'step_type'
p328
S'move_arm'
p329
sS'gripper_state'
p330
I1
sbag2
(g10
g4
Ntp331
Rp332
(dp333
S'has_constraint'
p334
I00
sS'pose'
p335
NsS'step_type'
p336
S'move_all_joints'
p337
sS'all_joint_states'
p338
(lp339
F-0.029861125689697267
aF-0.8681217189099121
aF-0.04117786862485886
aF1.0630554571960449
aF-0.003401421170186998
aF1.3929838026428223
aF-0.14138475161256792
asS'joint_value'
p340
I0
sS'torso_height'
p341
F0.4
sS'joint_name'
p342
g23
sS'gripper_state'
p343
I0
sbasbsS'place'
p344
g2
(g3
g4
Ntp345
Rp346
(dp347
S'steps'
p348
(lp349
g2
(g10
g4
Ntp350
Rp351
(dp352
S'has_constraint'
p353
I00
sS'pose'
p354
g2
(g111
g4
Ntp355
Rp356
(lp357
g2
(g115
g4
Ntp358
Rp359
(lp360
I0
ag2
(g119
g4
Ntp361
Rp362
(lp363
I0
aI0
abaS'base_link'
p364
abag2
(g124
g4
Ntp365
Rp366
(lp367
g2
(g128
g4
Ntp368
Rp369
(lp370
F0.6880032429479117
aF-0.0328171042799708
aF0.8240501570997676
abag2
(g148
g4
Ntp371
Rp372
(lp373
F0.004411748320689475
aF0.7069256954337976
aF-0.00011479474349698869
aF0.7072740518599304
abababsS'step_type'
p374
S'move_arm'
p375
sS'all_joint_states'
p376
(lp377
sS'joint_value'
p378
I0
sS'torso_height'
p379
F0.3771158456802368
sS'joint_name'
p380
g23
sS'gripper_state'
p381
I1
sbag2
(g10
g4
Ntp382
Rp383
(dp384
g353
I00
sg354
g2
(g111
g4
Ntp385
Rp386
(lp387
g2
(g115
g4
Ntp388
Rp389
(lp390
I0
ag2
(g119
g4
Ntp391
Rp392
(lp393
I0
aI0
abaS'base_link'
p394
abag2
(g124
g4
Ntp395
Rp396
(lp397
g2
(g128
g4
Ntp398
Rp399
(lp400
F0.6860207953083187
aF-0.033255241216203706
aF0.7720018051504673
abag2
(g148
g4
Ntp401
Rp402
(lp403
F0.0006909549598105434
aF0.710379224591459
aF0.0018825807073819525
aF0.7038162656119572
abababsg374
g375
sg376
(lp404
sg378
I0
sg379
F0.3771311044692993
sg380
g23
sg381
I1
sbag2
(g10
g4
Ntp405
Rp406
(dp407
g228
I00
sg229
Nsg270
S'move_gripper'
p408
sg272
(lp409
sg274
I0
sg275
F0.4
sg276
g23
sg277
I0
sbag2
(g10
g4
Ntp410
Rp411
(dp412
S'has_constraint'
p413
I00
sS'pose'
p414
g2
(g111
g4
Ntp415
Rp416
(lp417
g2
(g115
g4
Ntp418
Rp419
(lp420
I0
ag2
(g119
g4
Ntp421
Rp422
(lp423
I0
aI0
abaS'base_link'
p424
abag2
(g124
g4
Ntp425
Rp426
(lp427
g2
(g128
g4
Ntp428
Rp429
(lp430
F0.6463265931200021
aF-0.1078724109234751
aF0.9006158870962271
abag2
(g148
g4
Ntp431
Rp432
(lp433
F0.0058099743203380615
aF0.7095182012149308
aF0.00014291006687164212
aF0.7046631435798517
abababsg328
g329
sS'all_joint_states'
p434
(lp435
sS'joint_value'
p436
I0
sS'torso_height'
p437
F0.39280200004577637
sS'joint_name'
p438
g23
sS'gripper_state'
p439
I0
sbasbsS'dummy'
p440
g2
(g3
g4
Ntp441
Rp442
(dp443
S'steps'
p444
(lp445
g2
(g10
g4
Ntp446
Rp447
(dp448
g83
I00
sg84
Nsg85
g86
sg87
(lp449
F0.8510273959815979
aF-0.8685050959851074
aF-0.04117786862485886
aF1.0626720801208496
aF-0.0041684118765115755
aF1.3929838026428223
aF-0.14138475161256792
asg89
I0
sg90
F0.4
sg91
g23
sg92
I0
sbasbs.