(dp0
S'high-five'
p1
ccopy_reg
_reconstructor
p2
(cprogram_ctrl
Program
p3
c__builtin__
object
p4
Ntp5
Rp6
(dp7
S'steps'
p8
(lp9
g2
(cprogram_ctrl
ProgramStep
p10
g4
Ntp11
Rp12
(dp13
S'has_constraint'
p14
I00
sS'pose'
p15
NsS'step_type'
p16
S'move_all_joints'
p17
sS'all_joint_states'
p18
(lp19
F1.0351050760925293
aF-0.04705820038574219
aF-0.6336771918141174
aF0.39922565372924806
aF0.6308996415031433
aF-1.9135128175354004
aF-0.03745736166114509
asS'joint_value'
p20
I0
sS'torso_height'
p21
F0.4
sS'joint_name'
p22
S''
p23
sS'gripper_state'
p24
I0
sbag2
(g10
g4
Ntp25
Rp26
(dp27
g14
I00
sg15
Nsg16
g17
sg18
(lp28
F0.9031827714622498
aF-0.29939804032104494
aF-0.6329109741055298
aF0.400375784954834
aF0.6301326489341735
aF-1.1990605508422851
aF-0.038991342375302315
asg20
I0
sg21
F0.4
sg22
g23
sg24
I0
sbasbsS'start'
p29
g2
(g3
g4
Ntp30
Rp31
(dp32
S'steps'
p33
(lp34
g2
(g10
g4
Ntp35
Rp36
(dp37
S'has_constraint'
p38
I00
sS'pose'
p39
NsS'step_type'
p40
S'move_torso'
p41
sS'all_joint_states'
p42
(lp43
sS'joint_value'
p44
I0
sS'torso_height'
p45
F0.38610494964669956
sS'joint_name'
p46
g23
sS'gripper_state'
p47
I0
sbag2
(g10
g4
Ntp48
Rp49
(dp50
S'has_constraint'
p51
I00
sS'pose'
p52
NsS'step_type'
p53
S'move_all_joints'
p54
sS'all_joint_states'
p55
(lp56
F1.0784400370300293
aF-0.9041701312329101
aF-0.6490170431935119
aF1.610686720928955
aF0.504346225251007
aF0.9968332136535645
aF-0.6859477395957947
asS'joint_value'
p57
I0
sS'torso_height'
p58
F0.4
sS'joint_name'
p59
g23
sS'gripper_state'
p60
I0
sbasbsS'retrieve'
p61
g2
(g3
g4
Ntp62
Rp63
(dp64
S'steps'
p65
(lp66
g2
(g10
g4
Ntp67
Rp68
(dp69
S'has_constraint'
p70
I00
sS'pose'
p71
NsS'step_type'
p72
S'move_torso'
p73
sS'all_joint_states'
p74
(lp75
sS'joint_value'
p76
I0
sS'torso_height'
p77
F0.37998115496979673
sS'joint_name'
p78
g23
sS'gripper_state'
p79
I0
sbag2
(g10
g4
Ntp80
Rp81
(dp82
S'has_constraint'
p83
I00
sS'pose'
p84
NsS'step_type'
p85
S'move_all_joints'
p86
sS'all_joint_states'
p87
(lp88
F1.0784400370300293
aF-0.9034033770825195
aF-0.6490170431935119
aF1.6103033438537597
aF0.5035792326820373
aF0.9964498365783692
aF-0.6855644221252442
asS'joint_value'
p89
I0
sS'torso_height'
p90
F0.4
sS'joint_name'
p91
g23
sS'gripper_state'
p92
I0
sbag2
(g10
g4
Ntp93
Rp94
(dp95
S'has_constraint'
p96
I00
sS'pose'
p97
NsS'step_type'
p98
S'move_gripper'
p99
sS'all_joint_states'
p100
(lp101
sS'joint_value'
p102
I0
sS'torso_height'
p103
F0.4
sS'joint_name'
p104
g23
sS'gripper_state'
p105
I0
sbag2
(g10
g4
Ntp106
Rp107
(dp108
g83
I00
sg84
Nsg85
g86
sg87
(lp109
F0.26466324593429563
aF-0.9041701312329101
aF-0.6490170431935119
aF1.610686720928955
aF0.5047297215354919
aF0.9960659826660156
aF-0.6859477395957947
asg89
I0
sg90
F0.4
sg91
g23
sg92
I0
sbag2
(g10
g4
Ntp110
Rp111
(dp112
g83
I01
sg84
g2
(cgeometry_msgs.msg._PoseStamped
PoseStamped
p113
g4
Ntp114
Rp115
(lp116
g2
(cstd_msgs.msg._Header
Header
p117
g4
Ntp118
Rp119
(lp120
I0
ag2
(cgenpy.rostime
Time
p121
g4
Ntp122
Rp123
(lp124
I0
aI0
abaS'handle'
p125
abag2
(cgeometry_msgs.msg._Pose
Pose
p126
g4
Ntp127
Rp128
(lp129
g2
(cgeometry_msgs.msg._Point
Point
p130
g4
Ntp131
Rp132
(lp133
cnumpy.core.multiarray
scalar
p134
(cnumpy
dtype
p135
(S'f8'
p136
I0
I1
tp137
Rp138
(I3
S'<'
p139
NNNI-1
I-1
I0
tp140
bS'\x00\xa0\x16\xd1u#a\xbf'
p141
tp142
Rp143
ag134
(g138
S'\x002G\x05\x1dy\x13?'
p144
tp145
Rp146
ag134
(g138
S'\xf0s\xef\xd3\x97\xfc\xc0?'
p147
tp148
Rp149
abag2
(cgeometry_msgs.msg._Quaternion
Quaternion
p150
g4
Ntp151
Rp152
(lp153
g134
(g138
S'\xa0\xe5\xd0\xfb\xce\xbb\xe6?'
p154
tp155
Rp156
ag134
(g138
S'\xc0\xa8V\xc1\xe0z\x98\xbf'
p157
tp158
Rp159
ag134
(g138
S'\x92\x87\x87\xd2\xb8\x80\xe6\xbf'
p160
tp161
Rp162
ag134
(g138
S'\xdd\x11O-\xd4\x05\x8e\xbf'
p163
tp164
Rp165
abababsg85
S'move_arm'
p166
sg87
(lp167
sg89
I0
sg90
F0.37965646386146545
sg91
g23
sg92
I0
sbag2
(g10
g4
Ntp168
Rp169
(dp170
S'has_constraint'
p171
I01
sS'pose'
p172
g2
(g113
g4
Ntp173
Rp174
(lp175
g2
(g117
g4
Ntp176
Rp177
(lp178
I0
ag2
(g121
g4
Ntp179
Rp180
(lp181
I0
aI0
abaS'handle'
p182
abag2
(g126
g4
Ntp183
Rp184
(lp185
g2
(g130
g4
Ntp186
Rp187
(lp188
g134
(g138
S'\x00\xe2\xb0\xdf\xe8Zl\xbf'
p189
tp190
Rp191
ag134
(g138
S'\x80\xd5\x03\xa6jZl?'
p192
tp193
Rp194
ag134
(g138
S' \x16\n\xaa \xa5\xab?'
p195
tp196
Rp197
abag2
(g150
g4
Ntp198
Rp199
(lp200
g134
(g138
S'<\xa6\x04\x0b\x8f\xfa\xe6?'
p201
tp202
Rp203
ag134
(g138
S'\xd13z\xaa\x00\x0e\xad\xbf'
p204
tp205
Rp206
ag134
(g138
S'\xf6h\xa7@"&\xe6\xbf'
p207
tp208
Rp209
ag134
(g138
S'E\xfa\xe56K4\xa7\xbf'
p210
tp211
Rp212
abababsS'step_type'
p213
S'move_arm'
p214
sS'all_joint_states'
p215
(lp216
sS'joint_value'
p217
I0
sS'torso_height'
p218
F0.37962594628334045
sS'joint_name'
p219
g23
sS'gripper_state'
p220
I0
sbag2
(g10
g4
Ntp221
Rp222
(dp223
S'has_constraint'
p224
I01
sS'pose'
p225
g2
(g113
g4
Ntp226
Rp227
(lp228
g2
(g117
g4
Ntp229
Rp230
(lp231
I0
ag2
(g121
g4
Ntp232
Rp233
(lp234
I0
aI0
abaS'handle'
p235
abag2
(g126
g4
Ntp236
Rp237
(lp238
g2
(g130
g4
Ntp239
Rp240
(lp241
g134
(g138
S'\x00\x9eL\xb7N\xa0X\xbf'
p242
tp243
Rp244
ag134
(g138
S'\x00\x8e\xc0\x10\x8d\xdcY\xbf'
p245
tp246
Rp247
ag134
(g138
S'\xe0Lu\xf4\xb6\x8b\xa6?'
p248
tp249
Rp250
abag2
(g150
g4
Ntp251
Rp252
(lp253
g134
(g138
S'%gD\xb3(\xa9\xe6?'
p254
tp255
Rp256
ag134
(g138
S'\x1d\xda\x91\x97P\x96\xa4\xbf'
p257
tp258
Rp259
ag134
(g138
S'F\xebz@\xac\x81\xe6\xbf'
p260
tp261
Rp262
ag134
(g138
S'\x9a-V\xac\xab5\xa8\xbf'
p263
tp264
Rp265
abababsS'step_type'
p266
S'move_arm'
p267
sS'all_joint_states'
p268
(lp269
sS'joint_value'
p270
I0
sS'torso_height'
p271
F0.3796488344669342
sS'joint_name'
p272
g23
sS'gripper_state'
p273
I0
sbag2
(g10
g4
Ntp274
Rp275
(dp276
g96
I00
sg97
Nsg98
g99
sg100
(lp277
sg102
I0
sg103
F0.4
sg104
g23
sg105
I1
sbag2
(g10
g4
Ntp278
Rp279
(dp280
S'has_constraint'
p281
I00
sS'torso_height'
p282
F0.34366074204444885
sS'pose'
p283
g2
(g113
g4
Ntp284
Rp285
(lp286
g2
(g117
g4
Ntp287
Rp288
(lp289
I0
ag2
(g121
g4
Ntp290
Rp291
(lp292
I0
aI0
abaS'handle'
p293
abag2
(g126
g4
Ntp294
Rp295
(lp296
g2
(g130
g4
Ntp297
Rp298
(lp299
g134
(g138
S'\x00\xc0\x16\x1d\x9a\xf1\x07\xbf'
p300
tp301
Rp302
ag134
(g138
S'\x00\x99\x110K\xeaH?'
p303
tp304
Rp305
ag134
(g138
S'\xe0\xf3)\x91\xbb\x8f\xc0?'
p306
tp307
Rp308
abag2
(g150
g4
Ntp309
Rp310
(lp311
g134
(g138
S'\xfa\xd1U\xacy\xc4\xe6?'
p312
tp313
Rp314
ag134
(g138
S'\x82\x0c\x926\x8e\xd0p\xbf'
p315
tp316
Rp317
ag134
(g138
S'\x903\x0c\xb2\xcf{\xe6\xbf'
p318
tp319
Rp320
ag134
(g138
S'\nj\xa2\xa1\x8cG\x85?'
p321
tp322
Rp323
abababsS'step_type'
p324
S'move_arm'
p325
sS'gripper_state'
p326
I1
sbag2
(g10
g4
Ntp327
Rp328
(dp329
g51
I00
sg52
Nsg53
g54
sg55
(lp330
F0.21404155756835938
aF-0.7024518008496093
aF-0.6332944703900146
aF1.6175898924682617
aF0.6305161452186584
aF0.8698963011169434
aF-0.685180747026825
asg57
I0
sg58
F0.4
sg59
g23
sg60
I0
sbasbsS'place'
p331
g2
(g3
g4
Ntp332
Rp333
(dp334
S'steps'
p335
(lp336
g2
(g10
g4
Ntp337
Rp338
(dp339
S'has_constraint'
p340
I00
sS'pose'
p341
g2
(g113
g4
Ntp342
Rp343
(lp344
g2
(g117
g4
Ntp345
Rp346
(lp347
I0
ag2
(g121
g4
Ntp348
Rp349
(lp350
I0
aI0
abaS'base_link'
p351
abag2
(g126
g4
Ntp352
Rp353
(lp354
g2
(g130
g4
Ntp355
Rp356
(lp357
F0.6487195659652013
aF-0.10944479376061111
aF0.812608048425506
abag2
(g150
g4
Ntp358
Rp359
(lp360
F-0.0010233116271834647
aF0.7040863411781019
aF0.000343956763379865
aF0.7101135533796635
abababsg324
g325
sS'all_joint_states'
p361
(lp362
sS'joint_value'
p363
I0
sS'torso_height'
p364
F0.39280200004577637
sS'joint_name'
p365
g23
sS'gripper_state'
p366
I1
sbag2
(g10
g4
Ntp367
Rp368
(dp369
g340
I00
sg341
g2
(g113
g4
Ntp370
Rp371
(lp372
g2
(g117
g4
Ntp373
Rp374
(lp375
I0
ag2
(g121
g4
Ntp376
Rp377
(lp378
I0
aI0
abaS'base_link'
p379
abag2
(g126
g4
Ntp380
Rp381
(lp382
g2
(g130
g4
Ntp383
Rp384
(lp385
F0.6479011865458513
aF-0.11048471646369518
aF0.7696215898549699
abag2
(g150
g4
Ntp386
Rp387
(lp388
F-0.0010998470040518304
aF0.7065075132614367
aF-0.0035736726670050497
aF0.7076956640430813
abababsg324
g325
sg361
(lp389
sg363
I0
sg364
F0.39280200004577637
sg365
g23
sg366
I1
sbag2
(g10
g4
Ntp390
Rp391
(dp392
g224
I00
sg225
Nsg266
S'move_gripper'
p393
sg268
(lp394
sg270
I0
sg271
F0.4
sg272
g23
sg273
I0
sbag2
(g10
g4
Ntp395
Rp396
(dp397
g340
I00
sg341
g2
(g113
g4
Ntp398
Rp399
(lp400
g2
(g117
g4
Ntp401
Rp402
(lp403
I0
ag2
(g121
g4
Ntp404
Rp405
(lp406
I0
aI0
abaS'base_link'
p407
abag2
(g126
g4
Ntp408
Rp409
(lp410
g2
(g130
g4
Ntp411
Rp412
(lp413
F0.6463265931200021
aF-0.1078724109234751
aF0.9006158870962271
abag2
(g150
g4
Ntp414
Rp415
(lp416
F0.0058099743203380615
aF0.7095182012149308
aF0.00014291006687164212
aF0.7046631435798517
abababsg324
g325
sg361
(lp417
sg363
I0
sg364
F0.39280200004577637
sg365
g23
sg366
I0
sbasbs.