(dp0
S'place'
p1
ccopy_reg
_reconstructor
p2
(cprogram_ctrl
Program
p3
c__builtin__
object
p4
Ntp5
Rp6
(dp7
S'steps'
p8
(lp9
g2
(cprogram_ctrl
ProgramStep
p10
g4
Ntp11
Rp12
(dp13
S'torso_height'
p14
F0.396197110414505
sS'pose'
p15
g2
(cgeometry_msgs.msg._PoseStamped
PoseStamped
p16
g4
Ntp17
Rp18
(lp19
g2
(cstd_msgs.msg._Header
Header
p20
g4
Ntp21
Rp22
(lp23
I0
ag2
(cgenpy.rostime
Time
p24
g4
Ntp25
Rp26
(lp27
I0
aI0
abaS'base_link'
p28
abag2
(cgeometry_msgs.msg._Pose
Pose
p29
g4
Ntp30
Rp31
(lp32
g2
(cgeometry_msgs.msg._Point
Point
p33
g4
Ntp34
Rp35
(lp36
F0.5409669831458355
aF-0.11686793664665941
aF0.8430567026329976
abag2
(cgeometry_msgs.msg._Quaternion
Quaternion
p37
g4
Ntp38
Rp39
(lp40
F0.005011069502629021
aF0.7089903249813887
aF-0.0008228570115636846
aF0.705199922838597
abababsS'gripper_state'
p41
I1
sbag2
(g10
g4
Ntp42
Rp43
(dp44
g14
F0.39617422223091125
sg15
g2
(g16
g4
Ntp45
Rp46
(lp47
g2
(g20
g4
Ntp48
Rp49
(lp50
I0
ag2
(g24
g4
Ntp51
Rp52
(lp53
I0
aI0
abaS'base_link'
p54
abag2
(g29
g4
Ntp55
Rp56
(lp57
g2
(g33
g4
Ntp58
Rp59
(lp60
F0.5424427725009063
aF-0.11875991566940564
aF0.8233710599352361
abag2
(g37
g4
Ntp61
Rp62
(lp63
F-0.0020681810573866186
aF0.7069494725270169
aF-0.0020375257498098025
aF0.7072580960368748
abababsg41
I1
sbag2
(g10
g4
Ntp64
Rp65
(dp66
g14
F0.39617422223091125
sg15
g2
(g16
g4
Ntp67
Rp68
(lp69
g2
(g20
g4
Ntp70
Rp71
(lp72
I0
ag2
(g24
g4
Ntp73
Rp74
(lp75
I0
aI0
abaS'base_link'
p76
abag2
(g29
g4
Ntp77
Rp78
(lp79
g2
(g33
g4
Ntp80
Rp81
(lp82
F0.5422160045977203
aF-0.11819044111853351
aF0.8060828970748775
abag2
(g37
g4
Ntp83
Rp84
(lp85
F0.003208633770031298
aF0.7060678734557361
aF-0.003317636677146596
aF0.7081291238396448
abababsg41
I1
sbag2
(g10
g4
Ntp86
Rp87
(dp88
g14
F0.39617422223091125
sg15
g2
(g16
g4
Ntp89
Rp90
(lp91
g2
(g20
g4
Ntp92
Rp93
(lp94
I0
ag2
(g24
g4
Ntp95
Rp96
(lp97
I0
aI0
abaS'base_link'
p98
abag2
(g29
g4
Ntp99
Rp100
(lp101
g2
(g33
g4
Ntp102
Rp103
(lp104
F0.542446825752727
aF-0.11661485770112502
aF0.7856102431397136
abag2
(g37
g4
Ntp105
Rp106
(lp107
F-0.00015003201359784716
aF0.7064928757194637
aF0.0022945628898873222
aF0.7077164185103958
abababsg41
I1
sbag2
(g10
g4
Ntp108
Rp109
(dp110
g14
F0.39618948101997375
sg15
g2
(g16
g4
Ntp111
Rp112
(lp113
g2
(g20
g4
Ntp114
Rp115
(lp116
I0
ag2
(g24
g4
Ntp117
Rp118
(lp119
I0
aI0
abaS'base_link'
p120
abag2
(g29
g4
Ntp121
Rp122
(lp123
g2
(g33
g4
Ntp124
Rp125
(lp126
F0.5435921037719135
aF-0.1163655388267349
aF0.7735054879601465
abag2
(g37
g4
Ntp127
Rp128
(lp129
F0.005838134086977133
aF0.7040270730122853
aF-0.0001989718154959895
aF0.7101491090372173
abababsg41
I1
sbag2
(g10
g4
Ntp130
Rp131
(dp132
g14
F0.39617422223091125
sg15
g2
(g16
g4
Ntp133
Rp134
(lp135
g2
(g20
g4
Ntp136
Rp137
(lp138
I0
ag2
(g24
g4
Ntp139
Rp140
(lp141
I0
aI0
abaS'base_link'
p142
abag2
(g29
g4
Ntp143
Rp144
(lp145
g2
(g33
g4
Ntp146
Rp147
(lp148
F0.5436942232367287
aF-0.11639750394950295
aF0.7735407765599783
abag2
(g37
g4
Ntp149
Rp150
(lp151
F0.005985248248856772
aF0.7040370728763387
aF-0.0003415827943462283
aF0.7101379162812751
abababsg41
I0
sbag2
(g10
g4
Ntp152
Rp153
(dp154
g14
F0.39616659283638
sg15
g2
(g16
g4
Ntp155
Rp156
(lp157
g2
(g20
g4
Ntp158
Rp159
(lp160
I0
ag2
(g24
g4
Ntp161
Rp162
(lp163
I0
aI0
abaS'base_link'
p164
abag2
(g29
g4
Ntp165
Rp166
(lp167
g2
(g33
g4
Ntp168
Rp169
(lp170
F0.5426377664467052
aF-0.11092925619463745
aF0.8766746378389403
abag2
(g37
g4
Ntp171
Rp172
(lp173
F-0.002190927975527328
aF0.7051065876622906
aF-0.0042416007787516785
aF0.7090852619344731
abababsg41
I0
sbag2
(g10
g4
Ntp174
Rp175
(dp176
g14
F0.396136075258255
sg15
g2
(g16
g4
Ntp177
Rp178
(lp179
g2
(g20
g4
Ntp180
Rp181
(lp182
I0
ag2
(g24
g4
Ntp183
Rp184
(lp185
I0
aI0
abaS'base_link'
p186
abag2
(g29
g4
Ntp187
Rp188
(lp189
g2
(g33
g4
Ntp190
Rp191
(lp192
F0.09459243978659652
aF-0.5189554959058201
aF0.8769642654807733
abag2
(g37
g4
Ntp193
Rp194
(lp195
F0.4068347733390865
aF0.5752917613211845
aF-0.4150370871290279
aF0.575559790869337
abababsg41
I0
sbasbsS'retreive'
p196
g2
(g3
g4
Ntp197
Rp198
(dp199
g8
(lp200
g2
(g10
g4
Ntp201
Rp202
(dp203
g14
F0.396441251039505
sg15
g2
(g16
g4
Ntp204
Rp205
(lp206
g2
(g20
g4
Ntp207
Rp208
(lp209
I0
ag2
(g24
g4
Ntp210
Rp211
(lp212
I0
aI0
abaS'handle'
p213
abag2
(g29
g4
Ntp214
Rp215
(lp216
g2
(g33
g4
Ntp217
Rp218
(lp219
cnumpy.core.multiarray
scalar
p220
(cnumpy
dtype
p221
(S'f8'
p222
I0
I1
tp223
Rp224
(I3
S'<'
p225
NNNI-1
I-1
I0
tp226
bS"\x00\xd0'x\xdf\xe83?"
p227
tp228
Rp229
ag220
(g224
S'\x00\x10|\xfb \xaa\x18\xbf'
p230
tp231
Rp232
ag220
(g224
S'H\x9ekS\xf53\xc1?'
p233
tp234
Rp235
abag2
(g37
g4
Ntp236
Rp237
(lp238
g220
(g224
S'\xa6\x7f\x89\x02}i\xe6\xbf'
p239
tp240
Rp241
ag220
(g224
S'\xda+\xef0Kt\xa9?'
p242
tp243
Rp244
ag220
(g224
S'\xe66y\xba\x8c\xbd\xe6?'
p245
tp246
Rp247
ag220
(g224
S'vSGL8\xdc\xa6?'
p248
tp249
Rp250
abababsg41
I0
sbag2
(g10
g4
Ntp251
Rp252
(dp253
g14
F0.396441251039505
sg15
g2
(g16
g4
Ntp254
Rp255
(lp256
g2
(g20
g4
Ntp257
Rp258
(lp259
I0
ag2
(g24
g4
Ntp260
Rp261
(lp262
I0
aI0
abaS'handle'
p263
abag2
(g29
g4
Ntp264
Rp265
(lp266
g2
(g33
g4
Ntp267
Rp268
(lp269
g220
(g224
S'\x00\x82[*rvR?'
p270
tp271
Rp272
ag220
(g224
S'\x80\x00g\x16^\x19R?'
p273
tp274
Rp275
ag220
(g224
S'P\xc9\x03\xc1\xe1h\xac?'
p276
tp277
Rp278
abag2
(g37
g4
Ntp279
Rp280
(lp281
g220
(g224
S'F\xdf>\xa6\xb7\x81\xe6\xbf'
p282
tp283
Rp284
ag220
(g224
S'l/ \x15^\xf8\xa6?'
p285
tp286
Rp287
ag220
(g224
S'\xe8\xce\x1b\x7f\x18\xa8\xe6?'
p288
tp289
Rp290
ag220
(g224
S'\x04/\x19\x9b*\xfd\xa6?'
p291
tp292
Rp293
abababsg41
I0
sbag2
(g10
g4
Ntp294
Rp295
(dp296
g14
F0.3964259922504425
sg15
g2
(g16
g4
Ntp297
Rp298
(lp299
g2
(g20
g4
Ntp300
Rp301
(lp302
I0
ag2
(g24
g4
Ntp303
Rp304
(lp305
I0
aI0
abaS'handle'
p306
abag2
(g29
g4
Ntp307
Rp308
(lp309
g2
(g33
g4
Ntp310
Rp311
(lp312
g220
(g224
S'\x00&\x80\xa9\\h\\?'
p313
tp314
Rp315
ag220
(g224
S'\x00&\xa6\x0c\xc79B\xbf'
p316
tp317
Rp318
ag220
(g224
S'P\xa62B.=\xa3?'
p319
tp320
Rp321
abag2
(g37
g4
Ntp322
Rp323
(lp324
g220
(g224
S',s\x95KS\x8c\xe6\xbf'
p325
tp326
Rp327
ag220
(g224
S'p\xc6\xe6\x8d61\xa8?'
p328
tp329
Rp330
ag220
(g224
S'\x96a\x85~\xdd\x9e\xe6?'
p331
tp332
Rp333
ag220
(g224
S'\xd0M\xf2\xe8\xf0D\xa4?'
p334
tp335
Rp336
abababsg41
I0
sbag2
(g10
g4
Ntp337
Rp338
(dp339
g14
F0.3964259922504425
sg15
g2
(g16
g4
Ntp340
Rp341
(lp342
g2
(g20
g4
Ntp343
Rp344
(lp345
I0
ag2
(g24
g4
Ntp346
Rp347
(lp348
I0
aI0
abaS'handle'
p349
abag2
(g29
g4
Ntp350
Rp351
(lp352
g2
(g33
g4
Ntp353
Rp354
(lp355
g220
(g224
S'\x00\xd4\x9a\xcdU\x0ef?'
p356
tp357
Rp358
ag220
(g224
S'\x00\xf9\xfa\xd0PEK\xbf'
p359
tp360
Rp361
ag220
(g224
S'p\xd1Q\x14J\x02\xa3?'
p362
tp363
Rp364
abag2
(g37
g4
Ntp365
Rp366
(lp367
g220
(g224
S'\xcb\xf0\xc4^}\x92\xe6\xbf'
p368
tp369
Rp370
ag220
(g224
S'J\xef\xbdlq\x82\xa8?'
p371
tp372
Rp373
ag220
(g224
S'K\xe6\x92\xfc\xaf\x98\xe6?'
p374
tp375
Rp376
ag220
(g224
S'i\xbb\xb2n&\xea\xa3?'
p377
tp378
Rp379
abababsg41
I1
sbag2
(g10
g4
Ntp380
Rp381
(dp382
g14
F0.39646413922309875
sg15
g2
(g16
g4
Ntp383
Rp384
(lp385
g2
(g20
g4
Ntp386
Rp387
(lp388
I0
ag2
(g24
g4
Ntp389
Rp390
(lp391
I0
aI0
abaS'handle'
p392
abag2
(g29
g4
Ntp393
Rp394
(lp395
g2
(g33
g4
Ntp396
Rp397
(lp398
g220
(g224
S'\x00\x07\xe0pD\xd1c?'
p399
tp400
Rp401
ag220
(g224
S'\x00\xa8\x83}\xafBT\xbf'
p402
tp403
Rp404
ag220
(g224
S'H\xb0/r\xc3b\xbc?'
p405
tp406
Rp407
abag2
(g37
g4
Ntp408
Rp409
(lp410
g220
(g224
S'\xcf\x90\r\x94~\x92\xe6\xbf'
p411
tp412
Rp413
ag220
(g224
S'^\x0c\x0e>\x9f\xf9\xa9?'
p414
tp415
Rp416
ag220
(g224
S'\xd6\xa6UK\x8f\x95\xe6?'
p417
tp418
Rp419
ag220
(g224
S'Oec\x1a\xa7\x88\xa5?'
p420
tp421
Rp422
abababsg41
I1
sbag2
(g10
g4
Ntp423
Rp424
(dp425
g14
F0.39641073346138
sg15
g2
(g16
g4
Ntp426
Rp427
(lp428
g2
(g20
g4
Ntp429
Rp430
(lp431
I0
ag2
(g24
g4
Ntp432
Rp433
(lp434
I0
aI0
abaS'base_link'
p435
abag2
(g29
g4
Ntp436
Rp437
(lp438
g2
(g33
g4
Ntp439
Rp440
(lp441
F0.1028989701664557
aF0.522566198788092
aF0.8815577809833285
abag2
(g37
g4
Ntp442
Rp443
(lp444
F0.532421427584349
aF-0.4701657578192285
aF-0.5308049098327781
aF-0.4622961510987633
abababsg41
I1
sbasbs.