(dp0
S'high-five'
p1
ccopy_reg
_reconstructor
p2
(cprogram_ctrl
Program
p3
c__builtin__
object
p4
Ntp5
Rp6
(dp7
S'steps'
p8
(lp9
g2
(cprogram_ctrl
ProgramStep
p10
g4
Ntp11
Rp12
(dp13
S'has_constraint'
p14
I00
sS'pose'
p15
NsS'step_type'
p16
S'move_all_joints'
p17
sS'all_joint_states'
p18
(lp19
F1.0351050760925293
aF-0.04705820038574219
aF-0.6336771918141174
aF0.39922565372924806
aF0.6308996415031433
aF-1.9135128175354004
aF-0.03745736166114509
asS'joint_value'
p20
I0
sS'torso_height'
p21
F0.4
sS'joint_name'
p22
S''
p23
sS'gripper_state'
p24
I0
sbag2
(g10
g4
Ntp25
Rp26
(dp27
g14
I00
sg15
Nsg16
g17
sg18
(lp28
F0.9031827714622498
aF-0.29939804032104494
aF-0.6329109741055298
aF0.400375784954834
aF0.6301326489341735
aF-1.1990605508422851
aF-0.038991342375302315
asg20
I0
sg21
F0.4
sg22
g23
sg24
I0
sbasbsS'start'
p29
g2
(g3
g4
Ntp30
Rp31
(dp32
S'steps'
p33
(lp34
g2
(g10
g4
Ntp35
Rp36
(dp37
S'has_constraint'
p38
I00
sS'pose'
p39
NsS'step_type'
p40
S'move_torso'
p41
sS'all_joint_states'
p42
(lp43
sS'joint_value'
p44
I0
sS'torso_height'
p45
F0.38610494964669956
sS'joint_name'
p46
g23
sS'gripper_state'
p47
I0
sbag2
(g10
g4
Ntp48
Rp49
(dp50
S'has_constraint'
p51
I00
sS'pose'
p52
NsS'step_type'
p53
S'move_all_joints'
p54
sS'all_joint_states'
p55
(lp56
F0.7152701285064698
aF-0.8673544879223632
aF-0.04117786862485886
aF1.0638226881835937
aF-0.0037849174546718614
aF1.393750556793213
aF-0.14100106906356813
asS'joint_value'
p57
I0
sS'torso_height'
p58
F0.4
sS'joint_name'
p59
g23
sS'gripper_state'
p60
I0
sbasbsS'retrieve'
p61
g2
(g3
g4
Ntp62
Rp63
(dp64
S'steps'
p65
(lp66
g2
(g10
g4
Ntp67
Rp68
(dp69
S'has_constraint'
p70
I00
sS'pose'
p71
NsS'step_type'
p72
S'move_torso'
p73
sS'all_joint_states'
p74
(lp75
sS'joint_value'
p76
I0
sS'torso_height'
p77
F0.37998115496979673
sS'joint_name'
p78
g23
sS'gripper_state'
p79
I0
sbag2
(g10
g4
Ntp80
Rp81
(dp82
g51
I00
sg52
Nsg53
g54
sg55
(lp83
F0.8517943885505677
aF-0.8700390811230468
aF-0.04002738349669457
aF1.0622887030456543
aF-0.0037849174546718614
aF1.3925999487304688
aF-0.14176806163253786
asg57
I0
sg58
F0.4
sg59
g23
sg60
I0
sbag2
(g10
g4
Ntp84
Rp85
(dp86
S'has_constraint'
p87
I00
sS'pose'
p88
NsS'step_type'
p89
S'move_gripper'
p90
sS'all_joint_states'
p91
(lp92
sS'joint_value'
p93
I0
sS'torso_height'
p94
F0.4
sS'joint_name'
p95
g23
sS'gripper_state'
p96
I0
sbag2
(g10
g4
Ntp97
Rp98
(dp99
S'has_constraint'
p100
I01
sS'pose'
p101
g2
(cgeometry_msgs.msg._PoseStamped
PoseStamped
p102
g4
Ntp103
Rp104
(lp105
g2
(cstd_msgs.msg._Header
Header
p106
g4
Ntp107
Rp108
(lp109
I0
ag2
(cgenpy.rostime
Time
p110
g4
Ntp111
Rp112
(lp113
I0
aI0
abaS'handle'
p114
abag2
(cgeometry_msgs.msg._Pose
Pose
p115
g4
Ntp116
Rp117
(lp118
g2
(cgeometry_msgs.msg._Point
Point
p119
g4
Ntp120
Rp121
(lp122
cnumpy.core.multiarray
scalar
p123
(cnumpy
dtype
p124
(S'f8'
p125
I0
I1
tp126
Rp127
(I3
S'<'
p128
NNNI-1
I-1
I0
tp129
bS'\x00\xa0\x16\xd1u#a\xbf'
p130
tp131
Rp132
ag123
(g127
S'\x002G\x05\x1dy\x13?'
p133
tp134
Rp135
ag123
(g127
S'\xf0s\xef\xd3\x97\xfc\xc0?'
p136
tp137
Rp138
abag2
(cgeometry_msgs.msg._Quaternion
Quaternion
p139
g4
Ntp140
Rp141
(lp142
g123
(g127
S'\xa0\xe5\xd0\xfb\xce\xbb\xe6?'
p143
tp144
Rp145
ag123
(g127
S'\xc0\xa8V\xc1\xe0z\x98\xbf'
p146
tp147
Rp148
ag123
(g127
S'\x92\x87\x87\xd2\xb8\x80\xe6\xbf'
p149
tp150
Rp151
ag123
(g127
S'\xdd\x11O-\xd4\x05\x8e\xbf'
p152
tp153
Rp154
abababsS'step_type'
p155
S'move_arm'
p156
sS'all_joint_states'
p157
(lp158
sS'joint_value'
p159
I0
sS'torso_height'
p160
F0.37965646386146545
sS'joint_name'
p161
g23
sS'gripper_state'
p162
I0
sbag2
(g10
g4
Ntp163
Rp164
(dp165
S'has_constraint'
p166
I01
sS'pose'
p167
g2
(g102
g4
Ntp168
Rp169
(lp170
g2
(g106
g4
Ntp171
Rp172
(lp173
I0
ag2
(g110
g4
Ntp174
Rp175
(lp176
I0
aI0
abaS'handle'
p177
abag2
(g115
g4
Ntp178
Rp179
(lp180
g2
(g119
g4
Ntp181
Rp182
(lp183
g123
(g127
S'\x00\xe2\xb0\xdf\xe8Zl\xbf'
p184
tp185
Rp186
ag123
(g127
S'\x80\xd5\x03\xa6jZl?'
p187
tp188
Rp189
ag123
(g127
S' \x16\n\xaa \xa5\xab?'
p190
tp191
Rp192
abag2
(g139
g4
Ntp193
Rp194
(lp195
g123
(g127
S'<\xa6\x04\x0b\x8f\xfa\xe6?'
p196
tp197
Rp198
ag123
(g127
S'\xd13z\xaa\x00\x0e\xad\xbf'
p199
tp200
Rp201
ag123
(g127
S'\xf6h\xa7@"&\xe6\xbf'
p202
tp203
Rp204
ag123
(g127
S'E\xfa\xe56K4\xa7\xbf'
p205
tp206
Rp207
abababsS'step_type'
p208
S'move_arm'
p209
sS'all_joint_states'
p210
(lp211
sS'joint_value'
p212
I0
sS'torso_height'
p213
F0.37962594628334045
sS'joint_name'
p214
g23
sS'gripper_state'
p215
I0
sbag2
(g10
g4
Ntp216
Rp217
(dp218
S'has_constraint'
p219
I01
sS'pose'
p220
g2
(g102
g4
Ntp221
Rp222
(lp223
g2
(g106
g4
Ntp224
Rp225
(lp226
I0
ag2
(g110
g4
Ntp227
Rp228
(lp229
I0
aI0
abaS'handle'
p230
abag2
(g115
g4
Ntp231
Rp232
(lp233
g2
(g119
g4
Ntp234
Rp235
(lp236
g123
(g127
S'\x00\x9eL\xb7N\xa0X\xbf'
p237
tp238
Rp239
ag123
(g127
S'\x00\x8e\xc0\x10\x8d\xdcY\xbf'
p240
tp241
Rp242
ag123
(g127
S'\xe0Lu\xf4\xb6\x8b\xa6?'
p243
tp244
Rp245
abag2
(g139
g4
Ntp246
Rp247
(lp248
g123
(g127
S'%gD\xb3(\xa9\xe6?'
p249
tp250
Rp251
ag123
(g127
S'\x1d\xda\x91\x97P\x96\xa4\xbf'
p252
tp253
Rp254
ag123
(g127
S'F\xebz@\xac\x81\xe6\xbf'
p255
tp256
Rp257
ag123
(g127
S'\x9a-V\xac\xab5\xa8\xbf'
p258
tp259
Rp260
abababsS'step_type'
p261
S'move_arm'
p262
sS'all_joint_states'
p263
(lp264
sS'joint_value'
p265
I0
sS'torso_height'
p266
F0.3796488344669342
sS'joint_name'
p267
g23
sS'gripper_state'
p268
I0
sbag2
(g10
g4
Ntp269
Rp270
(dp271
g87
I00
sg88
Nsg89
g90
sg91
(lp272
sg93
I0
sg94
F0.4
sg95
g23
sg96
I1
sbag2
(g10
g4
Ntp273
Rp274
(dp275
S'has_constraint'
p276
I00
sS'torso_height'
p277
F0.34366074204444885
sS'pose'
p278
g2
(g102
g4
Ntp279
Rp280
(lp281
g2
(g106
g4
Ntp282
Rp283
(lp284
I0
ag2
(g110
g4
Ntp285
Rp286
(lp287
I0
aI0
abaS'handle'
p288
abag2
(g115
g4
Ntp289
Rp290
(lp291
g2
(g119
g4
Ntp292
Rp293
(lp294
g123
(g127
S'\x00\xc0\x16\x1d\x9a\xf1\x07\xbf'
p295
tp296
Rp297
ag123
(g127
S'\x00\x99\x110K\xeaH?'
p298
tp299
Rp300
ag123
(g127
S'\xe0\xf3)\x91\xbb\x8f\xc0?'
p301
tp302
Rp303
abag2
(g139
g4
Ntp304
Rp305
(lp306
g123
(g127
S'\xfa\xd1U\xacy\xc4\xe6?'
p307
tp308
Rp309
ag123
(g127
S'\x82\x0c\x926\x8e\xd0p\xbf'
p310
tp311
Rp312
ag123
(g127
S'\x903\x0c\xb2\xcf{\xe6\xbf'
p313
tp314
Rp315
ag123
(g127
S'\nj\xa2\xa1\x8cG\x85?'
p316
tp317
Rp318
abababsS'step_type'
p319
S'move_arm'
p320
sS'gripper_state'
p321
I1
sbag2
(g10
g4
Ntp322
Rp323
(dp324
S'has_constraint'
p325
I00
sS'pose'
p326
NsS'step_type'
p327
S'move_all_joints'
p328
sS'all_joint_states'
p329
(lp330
F-0.029861125689697267
aF-0.8681217189099121
aF-0.04117786862485886
aF1.0630554571960449
aF-0.003401421170186998
aF1.3929838026428223
aF-0.14138475161256792
asS'joint_value'
p331
I0
sS'torso_height'
p332
F0.4
sS'joint_name'
p333
g23
sS'gripper_state'
p334
I0
sbasbsS'place'
p335
g2
(g3
g4
Ntp336
Rp337
(dp338
S'steps'
p339
(lp340
g2
(g10
g4
Ntp341
Rp342
(dp343
S'has_constraint'
p344
I00
sS'pose'
p345
g2
(g102
g4
Ntp346
Rp347
(lp348
g2
(g106
g4
Ntp349
Rp350
(lp351
I0
ag2
(g110
g4
Ntp352
Rp353
(lp354
I0
aI0
abaS'base_link'
p355
abag2
(g115
g4
Ntp356
Rp357
(lp358
g2
(g119
g4
Ntp359
Rp360
(lp361
F0.6487195659652013
aF-0.10944479376061111
aF0.812608048425506
abag2
(g139
g4
Ntp362
Rp363
(lp364
F-0.0010233116271834647
aF0.7040863411781019
aF0.000343956763379865
aF0.7101135533796635
abababsg319
g320
sS'all_joint_states'
p365
(lp366
sS'joint_value'
p367
I0
sS'torso_height'
p368
F0.39280200004577637
sS'joint_name'
p369
g23
sS'gripper_state'
p370
I1
sbag2
(g10
g4
Ntp371
Rp372
(dp373
g344
I00
sg345
g2
(g102
g4
Ntp374
Rp375
(lp376
g2
(g106
g4
Ntp377
Rp378
(lp379
I0
ag2
(g110
g4
Ntp380
Rp381
(lp382
I0
aI0
abaS'base_link'
p383
abag2
(g115
g4
Ntp384
Rp385
(lp386
g2
(g119
g4
Ntp387
Rp388
(lp389
F0.6479011865458513
aF-0.11048471646369518
aF0.7696215898549699
abag2
(g139
g4
Ntp390
Rp391
(lp392
F-0.0010998470040518304
aF0.7065075132614367
aF-0.0035736726670050497
aF0.7076956640430813
abababsg319
g320
sg365
(lp393
sg367
I0
sg368
F0.39280200004577637
sg369
g23
sg370
I1
sbag2
(g10
g4
Ntp394
Rp395
(dp396
g219
I00
sg220
Nsg261
S'move_gripper'
p397
sg263
(lp398
sg265
I0
sg266
F0.4
sg267
g23
sg268
I0
sbag2
(g10
g4
Ntp399
Rp400
(dp401
g344
I00
sg345
g2
(g102
g4
Ntp402
Rp403
(lp404
g2
(g106
g4
Ntp405
Rp406
(lp407
I0
ag2
(g110
g4
Ntp408
Rp409
(lp410
I0
aI0
abaS'base_link'
p411
abag2
(g115
g4
Ntp412
Rp413
(lp414
g2
(g119
g4
Ntp415
Rp416
(lp417
F0.6463265931200021
aF-0.1078724109234751
aF0.9006158870962271
abag2
(g139
g4
Ntp418
Rp419
(lp420
F0.0058099743203380615
aF0.7095182012149308
aF0.00014291006687164212
aF0.7046631435798517
abababsg319
g320
sg365
(lp421
sg367
I0
sg368
F0.39280200004577637
sg369
g23
sg370
I0
sbasbsS'dummy'
p422
g2
(g3
g4
Ntp423
Rp424
(dp425
S'steps'
p426
(lp427
g2
(g10
g4
Ntp428
Rp429
(dp430
g51
I00
sg52
Nsg53
g54
sg55
(lp431
F0.8510273959815979
aF-0.8685050959851074
aF-0.04117786862485886
aF1.0626720801208496
aF-0.0041684118765115755
aF1.3929838026428223
aF-0.14138475161256792
asg57
I0
sg58
F0.4
sg59
g23
sg60
I0
sbasbs.