(dp0
S'cop'
p1
ccopy_reg
_reconstructor
p2
(cprogram_ctrl
Program
p3
c__builtin__
object
p4
Ntp5
Rp6
(dp7
S'steps'
p8
(lp9
g2
(cprogram_ctrl
ProgramStep
p10
g4
Ntp11
Rp12
(dp13
S'torso_height'
p14
F0.39616659283638
sS'pose'
p15
g2
(cgeometry_msgs.msg._PoseStamped
PoseStamped
p16
g4
Ntp17
Rp18
(lp19
g2
(cstd_msgs.msg._Header
Header
p20
g4
Ntp21
Rp22
(lp23
I0
ag2
(cgenpy.rostime
Time
p24
g4
Ntp25
Rp26
(lp27
I0
aI0
abaS'base_link'
p28
abag2
(cgeometry_msgs.msg._Pose
Pose
p29
g4
Ntp30
Rp31
(lp32
g2
(cgeometry_msgs.msg._Point
Point
p33
g4
Ntp34
Rp35
(lp36
F0.09503693943515167
aF-0.5181624958674464
aF0.8764881699277125
abag2
(cgeometry_msgs.msg._Quaternion
Quaternion
p37
g4
Ntp38
Rp39
(lp40
F0.41029332356071624
aF0.5748565441849133
aF-0.415947196909555
aF0.5728763144277863
abababsS'gripper_state'
p41
I0
sbag2
(g10
g4
Ntp42
Rp43
(dp44
g14
F0.39612844586372375
sg15
g2
(g16
g4
Ntp45
Rp46
(lp47
g2
(g20
g4
Ntp48
Rp49
(lp50
I0
ag2
(g24
g4
Ntp51
Rp52
(lp53
I0
aI0
abaS'base_link'
p54
abag2
(g29
g4
Ntp55
Rp56
(lp57
g2
(g33
g4
Ntp58
Rp59
(lp60
F0.09477380268257839
aF-0.5180614849752276
aF0.8764198147161048
abag2
(g37
g4
Ntp61
Rp62
(lp63
F0.410713809382673
aF0.5745529290742671
aF-0.4160877663749363
aF0.572777504051678
abababsg41
I1
sbasbsS'retreive'
p64
g2
(g3
g4
Ntp65
Rp66
(dp67
g8
(lp68
g2
(g10
g4
Ntp69
Rp70
(dp71
g14
F0.396441251039505
sg15
g2
(g16
g4
Ntp72
Rp73
(lp74
g2
(g20
g4
Ntp75
Rp76
(lp77
I0
ag2
(g24
g4
Ntp78
Rp79
(lp80
I0
aI0
abaS'handle'
p81
abag2
(g29
g4
Ntp82
Rp83
(lp84
g2
(g33
g4
Ntp85
Rp86
(lp87
cnumpy.core.multiarray
scalar
p88
(cnumpy
dtype
p89
(S'f8'
p90
I0
I1
tp91
Rp92
(I3
S'<'
p93
NNNI-1
I-1
I0
tp94
bS"\x00\xd0'x\xdf\xe83?"
p95
tp96
Rp97
ag88
(g92
S'\x00\x10|\xfb \xaa\x18\xbf'
p98
tp99
Rp100
ag88
(g92
S'H\x9ekS\xf53\xc1?'
p101
tp102
Rp103
abag2
(g37
g4
Ntp104
Rp105
(lp106
g88
(g92
S'\xa6\x7f\x89\x02}i\xe6\xbf'
p107
tp108
Rp109
ag88
(g92
S'\xda+\xef0Kt\xa9?'
p110
tp111
Rp112
ag88
(g92
S'\xe66y\xba\x8c\xbd\xe6?'
p113
tp114
Rp115
ag88
(g92
S'vSGL8\xdc\xa6?'
p116
tp117
Rp118
abababsg41
I0
sbag2
(g10
g4
Ntp119
Rp120
(dp121
g14
F0.396441251039505
sg15
g2
(g16
g4
Ntp122
Rp123
(lp124
g2
(g20
g4
Ntp125
Rp126
(lp127
I0
ag2
(g24
g4
Ntp128
Rp129
(lp130
I0
aI0
abaS'handle'
p131
abag2
(g29
g4
Ntp132
Rp133
(lp134
g2
(g33
g4
Ntp135
Rp136
(lp137
g88
(g92
S'\x00\x82[*rvR?'
p138
tp139
Rp140
ag88
(g92
S'\x80\x00g\x16^\x19R?'
p141
tp142
Rp143
ag88
(g92
S'P\xc9\x03\xc1\xe1h\xac?'
p144
tp145
Rp146
abag2
(g37
g4
Ntp147
Rp148
(lp149
g88
(g92
S'F\xdf>\xa6\xb7\x81\xe6\xbf'
p150
tp151
Rp152
ag88
(g92
S'l/ \x15^\xf8\xa6?'
p153
tp154
Rp155
ag88
(g92
S'\xe8\xce\x1b\x7f\x18\xa8\xe6?'
p156
tp157
Rp158
ag88
(g92
S'\x04/\x19\x9b*\xfd\xa6?'
p159
tp160
Rp161
abababsg41
I0
sbag2
(g10
g4
Ntp162
Rp163
(dp164
g14
F0.3964259922504425
sg15
g2
(g16
g4
Ntp165
Rp166
(lp167
g2
(g20
g4
Ntp168
Rp169
(lp170
I0
ag2
(g24
g4
Ntp171
Rp172
(lp173
I0
aI0
abaS'handle'
p174
abag2
(g29
g4
Ntp175
Rp176
(lp177
g2
(g33
g4
Ntp178
Rp179
(lp180
g88
(g92
S'\x00&\x80\xa9\\h\\?'
p181
tp182
Rp183
ag88
(g92
S'\x00&\xa6\x0c\xc79B\xbf'
p184
tp185
Rp186
ag88
(g92
S'P\xa62B.=\xa3?'
p187
tp188
Rp189
abag2
(g37
g4
Ntp190
Rp191
(lp192
g88
(g92
S',s\x95KS\x8c\xe6\xbf'
p193
tp194
Rp195
ag88
(g92
S'p\xc6\xe6\x8d61\xa8?'
p196
tp197
Rp198
ag88
(g92
S'\x96a\x85~\xdd\x9e\xe6?'
p199
tp200
Rp201
ag88
(g92
S'\xd0M\xf2\xe8\xf0D\xa4?'
p202
tp203
Rp204
abababsg41
I0
sbag2
(g10
g4
Ntp205
Rp206
(dp207
g14
F0.3964259922504425
sg15
g2
(g16
g4
Ntp208
Rp209
(lp210
g2
(g20
g4
Ntp211
Rp212
(lp213
I0
ag2
(g24
g4
Ntp214
Rp215
(lp216
I0
aI0
abaS'handle'
p217
abag2
(g29
g4
Ntp218
Rp219
(lp220
g2
(g33
g4
Ntp221
Rp222
(lp223
g88
(g92
S'\x00\xd4\x9a\xcdU\x0ef?'
p224
tp225
Rp226
ag88
(g92
S'\x00\xf9\xfa\xd0PEK\xbf'
p227
tp228
Rp229
ag88
(g92
S'p\xd1Q\x14J\x02\xa3?'
p230
tp231
Rp232
abag2
(g37
g4
Ntp233
Rp234
(lp235
g88
(g92
S'\xcb\xf0\xc4^}\x92\xe6\xbf'
p236
tp237
Rp238
ag88
(g92
S'J\xef\xbdlq\x82\xa8?'
p239
tp240
Rp241
ag88
(g92
S'K\xe6\x92\xfc\xaf\x98\xe6?'
p242
tp243
Rp244
ag88
(g92
S'i\xbb\xb2n&\xea\xa3?'
p245
tp246
Rp247
abababsg41
I1
sbag2
(g10
g4
Ntp248
Rp249
(dp250
g14
F0.39646413922309875
sg15
g2
(g16
g4
Ntp251
Rp252
(lp253
g2
(g20
g4
Ntp254
Rp255
(lp256
I0
ag2
(g24
g4
Ntp257
Rp258
(lp259
I0
aI0
abaS'handle'
p260
abag2
(g29
g4
Ntp261
Rp262
(lp263
g2
(g33
g4
Ntp264
Rp265
(lp266
g88
(g92
S'\x00\x07\xe0pD\xd1c?'
p267
tp268
Rp269
ag88
(g92
S'\x00\xa8\x83}\xafBT\xbf'
p270
tp271
Rp272
ag88
(g92
S'H\xb0/r\xc3b\xbc?'
p273
tp274
Rp275
abag2
(g37
g4
Ntp276
Rp277
(lp278
g88
(g92
S'\xcf\x90\r\x94~\x92\xe6\xbf'
p279
tp280
Rp281
ag88
(g92
S'^\x0c\x0e>\x9f\xf9\xa9?'
p282
tp283
Rp284
ag88
(g92
S'\xd6\xa6UK\x8f\x95\xe6?'
p285
tp286
Rp287
ag88
(g92
S'Oec\x1a\xa7\x88\xa5?'
p288
tp289
Rp290
abababsg41
I1
sbag2
(g10
g4
Ntp291
Rp292
(dp293
g14
F0.39641073346138
sg15
g2
(g16
g4
Ntp294
Rp295
(lp296
g2
(g20
g4
Ntp297
Rp298
(lp299
I0
ag2
(g24
g4
Ntp300
Rp301
(lp302
I0
aI0
abaS'base_link'
p303
abag2
(g29
g4
Ntp304
Rp305
(lp306
g2
(g33
g4
Ntp307
Rp308
(lp309
F0.1028989701664557
aF0.522566198788092
aF0.8815577809833285
abag2
(g37
g4
Ntp310
Rp311
(lp312
F0.532421427584349
aF-0.4701657578192285
aF-0.5308049098327781
aF-0.4622961510987633
abababsg41
I1
sbag2
(g10
g4
Ntp313
Rp314
(dp315
g14
F0.396197110414505
sg15
g2
(g16
g4
Ntp316
Rp317
(lp318
g2
(g20
g4
Ntp319
Rp320
(lp321
I0
ag2
(g24
g4
Ntp322
Rp323
(lp324
I0
aI0
abaS'base_link'
p325
abag2
(g29
g4
Ntp326
Rp327
(lp328
g2
(g33
g4
Ntp329
Rp330
(lp331
F0.5409669831458355
aF-0.11686793664665941
aF0.8430567026329976
abag2
(g37
g4
Ntp332
Rp333
(lp334
F0.005011069502629021
aF0.7089903249813887
aF-0.0008228570115636846
aF0.705199922838597
abababsg41
I1
sbag2
(g10
g4
Ntp335
Rp336
(dp337
g14
F0.39617422223091125
sg15
g2
(g16
g4
Ntp338
Rp339
(lp340
g2
(g20
g4
Ntp341
Rp342
(lp343
I0
ag2
(g24
g4
Ntp344
Rp345
(lp346
I0
aI0
abaS'base_link'
p347
abag2
(g29
g4
Ntp348
Rp349
(lp350
g2
(g33
g4
Ntp351
Rp352
(lp353
F0.5424427725009063
aF-0.11875991566940564
aF0.8233710599352361
abag2
(g37
g4
Ntp354
Rp355
(lp356
F-0.0020681810573866186
aF0.7069494725270169
aF-0.0020375257498098025
aF0.7072580960368748
abababsg41
I1
sbag2
(g10
g4
Ntp357
Rp358
(dp359
g14
F0.39617422223091125
sg15
g2
(g16
g4
Ntp360
Rp361
(lp362
g2
(g20
g4
Ntp363
Rp364
(lp365
I0
ag2
(g24
g4
Ntp366
Rp367
(lp368
I0
aI0
abaS'base_link'
p369
abag2
(g29
g4
Ntp370
Rp371
(lp372
g2
(g33
g4
Ntp373
Rp374
(lp375
F0.5422160045977203
aF-0.11819044111853351
aF0.8060828970748775
abag2
(g37
g4
Ntp376
Rp377
(lp378
F0.003208633770031298
aF0.7060678734557361
aF-0.003317636677146596
aF0.7081291238396448
abababsg41
I1
sbag2
(g10
g4
Ntp379
Rp380
(dp381
g14
F0.39617422223091125
sg15
g2
(g16
g4
Ntp382
Rp383
(lp384
g2
(g20
g4
Ntp385
Rp386
(lp387
I0
ag2
(g24
g4
Ntp388
Rp389
(lp390
I0
aI0
abaS'base_link'
p391
abag2
(g29
g4
Ntp392
Rp393
(lp394
g2
(g33
g4
Ntp395
Rp396
(lp397
F0.542446825752727
aF-0.11661485770112502
aF0.7856102431397136
abag2
(g37
g4
Ntp398
Rp399
(lp400
F-0.00015003201359784716
aF0.7064928757194637
aF0.0022945628898873222
aF0.7077164185103958
abababsg41
I1
sbag2
(g10
g4
Ntp401
Rp402
(dp403
g14
F0.39618948101997375
sg15
g2
(g16
g4
Ntp404
Rp405
(lp406
g2
(g20
g4
Ntp407
Rp408
(lp409
I0
ag2
(g24
g4
Ntp410
Rp411
(lp412
I0
aI0
abaS'base_link'
p413
abag2
(g29
g4
Ntp414
Rp415
(lp416
g2
(g33
g4
Ntp417
Rp418
(lp419
F0.5435921037719135
aF-0.1163655388267349
aF0.7735054879601465
abag2
(g37
g4
Ntp420
Rp421
(lp422
F0.005838134086977133
aF0.7040270730122853
aF-0.0001989718154959895
aF0.7101491090372173
abababsg41
I1
sbag2
(g10
g4
Ntp423
Rp424
(dp425
g14
F0.39617422223091125
sg15
g2
(g16
g4
Ntp426
Rp427
(lp428
g2
(g20
g4
Ntp429
Rp430
(lp431
I0
ag2
(g24
g4
Ntp432
Rp433
(lp434
I0
aI0
abaS'base_link'
p435
abag2
(g29
g4
Ntp436
Rp437
(lp438
g2
(g33
g4
Ntp439
Rp440
(lp441
F0.5436942232367287
aF-0.11639750394950295
aF0.7735407765599783
abag2
(g37
g4
Ntp442
Rp443
(lp444
F0.005985248248856772
aF0.7040370728763387
aF-0.0003415827943462283
aF0.7101379162812751
abababsg41
I0
sbag2
(g10
g4
Ntp445
Rp446
(dp447
g14
F0.39616659283638
sg15
g2
(g16
g4
Ntp448
Rp449
(lp450
g2
(g20
g4
Ntp451
Rp452
(lp453
I0
ag2
(g24
g4
Ntp454
Rp455
(lp456
I0
aI0
abaS'base_link'
p457
abag2
(g29
g4
Ntp458
Rp459
(lp460
g2
(g33
g4
Ntp461
Rp462
(lp463
F0.5426377664467052
aF-0.11092925619463745
aF0.8766746378389403
abag2
(g37
g4
Ntp464
Rp465
(lp466
F-0.002190927975527328
aF0.7051065876622906
aF-0.0042416007787516785
aF0.7090852619344731
abababsg41
I0
sbag2
(g10
g4
Ntp467
Rp468
(dp469
g14
F0.396136075258255
sg15
g2
(g16
g4
Ntp470
Rp471
(lp472
g2
(g20
g4
Ntp473
Rp474
(lp475
I0
ag2
(g24
g4
Ntp476
Rp477
(lp478
I0
aI0
abaS'base_link'
p479
abag2
(g29
g4
Ntp480
Rp481
(lp482
g2
(g33
g4
Ntp483
Rp484
(lp485
F0.09459243978659652
aF-0.5189554959058201
aF0.8769642654807733
abag2
(g37
g4
Ntp486
Rp487
(lp488
F0.4068347733390865
aF0.5752917613211845
aF-0.4150370871290279
aF0.575559790869337
abababsg41
I0
sbasbsS'bottom'
p489
g2
(g3
g4
Ntp490
Rp491
(dp492
g8
(lp493
sbsS'top'
p494
g2
(g3
g4
Ntp495
Rp496
(dp497
g8
(lp498
g2
(g10
g4
Ntp499
Rp500
(dp501
g14
F0.396136075258255
sg15
g2
(g16
g4
Ntp502
Rp503
(lp504
g2
(g20
g4
Ntp505
Rp506
(lp507
I0
ag2
(g24
g4
Ntp508
Rp509
(lp510
I0
aI0
abaS'base_link'
p511
abag2
(g29
g4
Ntp512
Rp513
(lp514
g2
(g33
g4
Ntp515
Rp516
(lp517
F0.09523320501791953
aF-0.5184179576406572
aF0.8756752398596142
abag2
(g37
g4
Ntp518
Rp519
(lp520
F0.412217490098297
aF0.5728302472167756
aF-0.4184843472013255
aF0.5716756946714708
abababsg41
I1
sbasbsS'place'
p521
g2
(g3
g4
Ntp522
Rp523
(dp524
g8
g68
sbsS'test'
p525
g2
(g3
g4
Ntp526
Rp527
(dp528
g8
g68
sbs.