(dp0
S'start2'
p1
ccopy_reg
_reconstructor
p2
(cprogram_ctrl
Program
p3
c__builtin__
object
p4
Ntp5
Rp6
(dp7
S'steps'
p8
(lp9
g2
(cprogram_ctrl
ProgramStep
p10
g4
Ntp11
Rp12
(dp13
S'has_constraint'
p14
I00
sS'pose'
p15
NsS'step_type'
p16
S'move_all_joints'
p17
sS'all_joint_states'
p18
(lp19
F1.0784400370300293
aF-0.9041701312329101
aF-0.6490170431935119
aF1.610686720928955
aF0.504346225251007
aF0.9968332136535645
aF-0.6859477395957947
asS'joint_value'
p20
I0
sS'torso_height'
p21
F0.4
sS'joint_name'
p22
S''
p23
sS'gripper_state'
p24
I0
sbasbsS'retrieve'
p25
g2
(g3
g4
Ntp26
Rp27
(dp28
S'steps'
p29
(lp30
g2
(g10
g4
Ntp31
Rp32
(dp33
S'has_constraint'
p34
I00
sS'pose'
p35
NsS'step_type'
p36
S'move_joint'
p37
sS'all_joint_states'
p38
(lp39
sS'joint_value'
p40
F1.1026003029525757
sS'torso_height'
p41
F0.4
sS'joint_name'
p42
S'shoulder_pan_joint'
p43
sS'gripper_state'
p44
I0
sbag2
(g10
g4
Ntp45
Rp46
(dp47
S'has_constraint'
p48
I00
sS'torso_height'
p49
F0.3436836302280426
sS'pose'
p50
g2
(cgeometry_msgs.msg._PoseStamped
PoseStamped
p51
g4
Ntp52
Rp53
(lp54
g2
(cstd_msgs.msg._Header
Header
p55
g4
Ntp56
Rp57
(lp58
I0
ag2
(cgenpy.rostime
Time
p59
g4
Ntp60
Rp61
(lp62
I0
aI0
abaS'handle'
p63
abag2
(cgeometry_msgs.msg._Pose
Pose
p64
g4
Ntp65
Rp66
(lp67
g2
(cgeometry_msgs.msg._Point
Point
p68
g4
Ntp69
Rp70
(lp71
cnumpy.core.multiarray
scalar
p72
(cnumpy
dtype
p73
(S'f8'
p74
I0
I1
tp75
Rp76
(I3
S'<'
p77
NNNI-1
I-1
I0
tp78
bS'\x00`\xb0\x06\x93\xe4\x1b\xbf'
p79
tp80
Rp81
ag72
(g76
S'\xd0\x00\x19e\x8bGj?'
p82
tp83
Rp84
ag72
(g76
S'\x00N\x07\xecY\x0f\xc1?'
p85
tp86
Rp87
abag2
(cgeometry_msgs.msg._Quaternion
Quaternion
p88
g4
Ntp89
Rp90
(lp91
g72
(g76
S'\xd6HL\xd71\xaf\xe6?'
p92
tp93
Rp94
ag72
(g76
S'~,d\xd0\x10\x82\xab\xbf'
p95
tp96
Rp97
ag72
(g76
S'\xfb\xe3t\xaf)v\xe6\xbf'
p98
tp99
Rp100
ag72
(g76
S'\xa1-H\xd9\xeeK\xa6\xbf'
p101
tp102
Rp103
abababsS'step_type'
p104
S'move_arm'
p105
sS'gripper_state'
p106
I0
sbag2
(g10
g4
Ntp107
Rp108
(dp109
g48
I00
sg49
F0.34367600083351135
sg50
g2
(g51
g4
Ntp110
Rp111
(lp112
g2
(g55
g4
Ntp113
Rp114
(lp115
I0
ag2
(g59
g4
Ntp116
Rp117
(lp118
I0
aI0
abaS'handle'
p119
abag2
(g64
g4
Ntp120
Rp121
(lp122
g2
(g68
g4
Ntp123
Rp124
(lp125
g72
(g76
S'\x00\xf0Yf\xbeOU\xbf'
p126
tp127
Rp128
ag72
(g76
S' B\xf5F\xee%`?'
p129
tp130
Rp131
ag72
(g76
S'\x00n\x90^\xe2`\xa7?'
p132
tp133
Rp134
abag2
(g88
g4
Ntp135
Rp136
(lp137
g72
(g76
S'f\x86\x10T0\xab\xe6?'
p138
tp139
Rp140
ag72
(g76
S'7\x11eu\x15MO?'
p141
tp142
Rp143
ag72
(g76
S'e\t\x8eL\xe7\x95\xe6\xbf'
p144
tp145
Rp146
ag72
(g76
S'\xa4%\xe0\xfc\xe5\xabr?'
p147
tp148
Rp149
abababsg104
g105
sg106
I0
sbag2
(g10
g4
Ntp150
Rp151
(dp152
g48
I00
sg49
F0.3436531126499176
sg50
g2
(g51
g4
Ntp153
Rp154
(lp155
g2
(g55
g4
Ntp156
Rp157
(lp158
I0
ag2
(g59
g4
Ntp159
Rp160
(lp161
I0
aI0
abaS'handle'
p162
abag2
(g64
g4
Ntp163
Rp164
(lp165
g2
(g68
g4
Ntp166
Rp167
(lp168
g72
(g76
S'\x00v\x1e\xbbM\xdbP\xbf'
p169
tp170
Rp171
ag72
(g76
S'\x00\xdc\xe5:x\xdbc?'
p172
tp173
Rp174
ag72
(g76
S'\x10\xdd\x1e\xe5\x1d\x14\xa7?'
p175
tp176
Rp177
abag2
(g88
g4
Ntp178
Rp179
(lp180
g72
(g76
S'\xe5\xe6\xdd(,\xae\xe6?'
p181
tp182
Rp183
ag72
(g76
S'\xe39\xdf,A*G?'
p184
tp185
Rp186
ag72
(g76
S'4ey\xab\xef\x92\xe6\xbf'
p187
tp188
Rp189
ag72
(g76
S'\xfc\xe7\xb6\x85d}p?'
p190
tp191
Rp192
abababsg104
g105
sg106
I1
sbag2
(g10
g4
Ntp193
Rp194
(dp195
g48
I00
sg49
F0.34366074204444885
sg50
g2
(g51
g4
Ntp196
Rp197
(lp198
g2
(g55
g4
Ntp199
Rp200
(lp201
I0
ag2
(g59
g4
Ntp202
Rp203
(lp204
I0
aI0
abaS'handle'
p205
abag2
(g64
g4
Ntp206
Rp207
(lp208
g2
(g68
g4
Ntp209
Rp210
(lp211
g72
(g76
S'\x00\xc0\x16\x1d\x9a\xf1\x07\xbf'
p212
tp213
Rp214
ag72
(g76
S'\x00\x99\x110K\xeaH?'
p215
tp216
Rp217
ag72
(g76
S'\xe0\xf3)\x91\xbb\x8f\xc0?'
p218
tp219
Rp220
abag2
(g88
g4
Ntp221
Rp222
(lp223
g72
(g76
S'\xfa\xd1U\xacy\xc4\xe6?'
p224
tp225
Rp226
ag72
(g76
S'\x82\x0c\x926\x8e\xd0p\xbf'
p227
tp228
Rp229
ag72
(g76
S'\x903\x0c\xb2\xcf{\xe6\xbf'
p230
tp231
Rp232
ag72
(g76
S'\nj\xa2\xa1\x8cG\x85?'
p233
tp234
Rp235
abababsg104
g105
sg106
I1
sbag2
(g10
g4
Ntp236
Rp237
(dp238
g14
I00
sg15
Nsg16
g17
sg18
(lp239
F0.21404155756835938
aF-0.7024518008496093
aF-0.6332944703900146
aF1.6175898924682617
aF0.6305161452186584
aF0.8698963011169434
aF-0.685180747026825
asg20
I0
sg21
F0.4
sg22
g23
sg24
I0
sbasbsS'place'
p240
g2
(g3
g4
Ntp241
Rp242
(dp243
S'steps'
p244
(lp245
g2
(g10
g4
Ntp246
Rp247
(dp248
S'has_constraint'
p249
I00
sS'pose'
p250
g2
(g51
g4
Ntp251
Rp252
(lp253
g2
(g55
g4
Ntp254
Rp255
(lp256
I0
ag2
(g59
g4
Ntp257
Rp258
(lp259
I0
aI0
abaS'base_link'
p260
abag2
(g64
g4
Ntp261
Rp262
(lp263
g2
(g68
g4
Ntp264
Rp265
(lp266
F0.6487195659652013
aF-0.10944479376061111
aF0.812608048425506
abag2
(g88
g4
Ntp267
Rp268
(lp269
F-0.0010233116271834647
aF0.7040863411781019
aF0.000343956763379865
aF0.7101135533796635
abababsg104
g105
sS'all_joint_states'
p270
(lp271
sS'joint_value'
p272
I0
sS'torso_height'
p273
F0.39280200004577637
sS'joint_name'
p274
g23
sS'gripper_state'
p275
I1
sbag2
(g10
g4
Ntp276
Rp277
(dp278
g249
I00
sg250
g2
(g51
g4
Ntp279
Rp280
(lp281
g2
(g55
g4
Ntp282
Rp283
(lp284
I0
ag2
(g59
g4
Ntp285
Rp286
(lp287
I0
aI0
abaS'base_link'
p288
abag2
(g64
g4
Ntp289
Rp290
(lp291
g2
(g68
g4
Ntp292
Rp293
(lp294
F0.6479011865458513
aF-0.11048471646369518
aF0.7696215898549699
abag2
(g88
g4
Ntp295
Rp296
(lp297
F-0.0010998470040518304
aF0.7065075132614367
aF-0.0035736726670050497
aF0.7076956640430813
abababsg104
g105
sg270
(lp298
sg272
I0
sg273
F0.39280200004577637
sg274
g23
sg275
I1
sbag2
(g10
g4
Ntp299
Rp300
(dp301
g249
I00
sg250
g2
(g51
g4
Ntp302
Rp303
(lp304
g2
(g55
g4
Ntp305
Rp306
(lp307
I0
ag2
(g59
g4
Ntp308
Rp309
(lp310
I0
aI0
abaS'base_link'
p311
abag2
(g64
g4
Ntp312
Rp313
(lp314
g2
(g68
g4
Ntp315
Rp316
(lp317
F0.6479603325140825
aF-0.10968566668102837
aF0.769567490140375
abag2
(g88
g4
Ntp318
Rp319
(lp320
F-0.0004130392736089599
aF0.706589450448042
aF-0.0029409248629431385
aF0.7076175018151001
abababsg104
g105
sg270
(lp321
sg272
I0
sg273
F0.39280200004577637
sg274
g23
sg275
I0
sbag2
(g10
g4
Ntp322
Rp323
(dp324
g249
I00
sg250
g2
(g51
g4
Ntp325
Rp326
(lp327
g2
(g55
g4
Ntp328
Rp329
(lp330
I0
ag2
(g59
g4
Ntp331
Rp332
(lp333
I0
aI0
abaS'base_link'
p334
abag2
(g64
g4
Ntp335
Rp336
(lp337
g2
(g68
g4
Ntp338
Rp339
(lp340
F0.6463265931200021
aF-0.1078724109234751
aF0.9006158870962271
abag2
(g88
g4
Ntp341
Rp342
(lp343
F0.0058099743203380615
aF0.7095182012149308
aF0.00014291006687164212
aF0.7046631435798517
abababsg104
g105
sg270
(lp344
sg272
I0
sg273
F0.39280200004577637
sg274
g23
sg275
I0
sbasbsS'high-five'
p345
g2
(g3
g4
Ntp346
Rp347
(dp348
S'steps'
p349
(lp350
g2
(g10
g4
Ntp351
Rp352
(dp353
S'has_constraint'
p354
I00
sS'pose'
p355
NsS'step_type'
p356
S'move_all_joints'
p357
sS'all_joint_states'
p358
(lp359
F1.0351050760925293
aF-0.04705820038574219
aF-0.6336771918141174
aF0.39922565372924806
aF0.6308996415031433
aF-1.9135128175354004
aF-0.03745736166114509
asS'joint_value'
p360
I0
sS'torso_height'
p361
F0.4
sS'joint_name'
p362
g23
sS'gripper_state'
p363
I0
sbag2
(g10
g4
Ntp364
Rp365
(dp366
g354
I00
sg355
Nsg356
g357
sg358
(lp367
F0.9031827714622498
aF-0.29939804032104494
aF-0.6329109741055298
aF0.400375784954834
aF0.6301326489341735
aF-1.1990605508422851
aF-0.038991342375302315
asg360
I0
sg361
F0.4
sg362
g23
sg363
I0
sbasbsS'start'
p368
g2
(g3
g4
Ntp369
Rp370
(dp371
S'steps'
p372
(lp373
g2
(g10
g4
Ntp374
Rp375
(dp376
S'has_constraint'
p377
I00
sS'pose'
p378
NsS'step_type'
p379
S'move_all_joints'
p380
sS'all_joint_states'
p381
(lp382
F1.4642361071289063
aF-0.37724790528076174
aF-1.6710325551831056
aF1.5807742491577148
aF-1.8491636180984496
aF-1.6036478196716308
aF-0.38528769564094545
asS'joint_value'
p383
I0
sS'torso_height'
p384
F0.4
sS'joint_name'
p385
g23
sS'gripper_state'
p386
I0
sbasbs.