(dp0
S'start2'
p1
ccopy_reg
_reconstructor
p2
(cprogram_ctrl
Program
p3
c__builtin__
object
p4
Ntp5
Rp6
(dp7
S'steps'
p8
(lp9
g2
(cprogram_ctrl
ProgramStep
p10
g4
Ntp11
Rp12
(dp13
S'has_constraint'
p14
I00
sS'pose'
p15
NsS'step_type'
p16
S'move_torso'
p17
sS'all_joint_states'
p18
(lp19
sS'joint_value'
p20
I0
sS'torso_height'
p21
F0.38610494964669956
sS'joint_name'
p22
S''
p23
sS'gripper_state'
p24
I0
sbag2
(g10
g4
Ntp25
Rp26
(dp27
S'has_constraint'
p28
I00
sS'pose'
p29
NsS'step_type'
p30
S'move_all_joints'
p31
sS'all_joint_states'
p32
(lp33
F1.0784400370300293
aF-0.9041701312329101
aF-0.6490170431935119
aF1.610686720928955
aF0.504346225251007
aF0.9968332136535645
aF-0.6859477395957947
asS'joint_value'
p34
I0
sS'torso_height'
p35
F0.4
sS'joint_name'
p36
g23
sS'gripper_state'
p37
I0
sbasbsS'place'
p38
g2
(g3
g4
Ntp39
Rp40
(dp41
S'steps'
p42
(lp43
g2
(g10
g4
Ntp44
Rp45
(dp46
S'has_constraint'
p47
I00
sS'pose'
p48
g2
(cgeometry_msgs.msg._PoseStamped
PoseStamped
p49
g4
Ntp50
Rp51
(lp52
g2
(cstd_msgs.msg._Header
Header
p53
g4
Ntp54
Rp55
(lp56
I0
ag2
(cgenpy.rostime
Time
p57
g4
Ntp58
Rp59
(lp60
I0
aI0
abaS'base_link'
p61
abag2
(cgeometry_msgs.msg._Pose
Pose
p62
g4
Ntp63
Rp64
(lp65
g2
(cgeometry_msgs.msg._Point
Point
p66
g4
Ntp67
Rp68
(lp69
F0.6487195659652013
aF-0.10944479376061111
aF0.812608048425506
abag2
(cgeometry_msgs.msg._Quaternion
Quaternion
p70
g4
Ntp71
Rp72
(lp73
F-0.0010233116271834647
aF0.7040863411781019
aF0.000343956763379865
aF0.7101135533796635
abababsS'step_type'
p74
S'move_arm'
p75
sS'all_joint_states'
p76
(lp77
sS'joint_value'
p78
I0
sS'torso_height'
p79
F0.39280200004577637
sS'joint_name'
p80
g23
sS'gripper_state'
p81
I1
sbag2
(g10
g4
Ntp82
Rp83
(dp84
g47
I00
sg48
g2
(g49
g4
Ntp85
Rp86
(lp87
g2
(g53
g4
Ntp88
Rp89
(lp90
I0
ag2
(g57
g4
Ntp91
Rp92
(lp93
I0
aI0
abaS'base_link'
p94
abag2
(g62
g4
Ntp95
Rp96
(lp97
g2
(g66
g4
Ntp98
Rp99
(lp100
F0.6479011865458513
aF-0.11048471646369518
aF0.7696215898549699
abag2
(g70
g4
Ntp101
Rp102
(lp103
F-0.0010998470040518304
aF0.7065075132614367
aF-0.0035736726670050497
aF0.7076956640430813
abababsg74
g75
sg76
(lp104
sg78
I0
sg79
F0.39280200004577637
sg80
g23
sg81
I1
sbag2
(g10
g4
Ntp105
Rp106
(dp107
g47
I00
sg48
g2
(g49
g4
Ntp108
Rp109
(lp110
g2
(g53
g4
Ntp111
Rp112
(lp113
I0
ag2
(g57
g4
Ntp114
Rp115
(lp116
I0
aI0
abaS'base_link'
p117
abag2
(g62
g4
Ntp118
Rp119
(lp120
g2
(g66
g4
Ntp121
Rp122
(lp123
F0.6479603325140825
aF-0.10968566668102837
aF0.769567490140375
abag2
(g70
g4
Ntp124
Rp125
(lp126
F-0.0004130392736089599
aF0.706589450448042
aF-0.0029409248629431385
aF0.7076175018151001
abababsg74
g75
sg76
(lp127
sg78
I0
sg79
F0.39280200004577637
sg80
g23
sg81
I0
sbag2
(g10
g4
Ntp128
Rp129
(dp130
g47
I00
sg48
g2
(g49
g4
Ntp131
Rp132
(lp133
g2
(g53
g4
Ntp134
Rp135
(lp136
I0
ag2
(g57
g4
Ntp137
Rp138
(lp139
I0
aI0
abaS'base_link'
p140
abag2
(g62
g4
Ntp141
Rp142
(lp143
g2
(g66
g4
Ntp144
Rp145
(lp146
F0.6463265931200021
aF-0.1078724109234751
aF0.9006158870962271
abag2
(g70
g4
Ntp147
Rp148
(lp149
F0.0058099743203380615
aF0.7095182012149308
aF0.00014291006687164212
aF0.7046631435798517
abababsg74
g75
sg76
(lp150
sg78
I0
sg79
F0.39280200004577637
sg80
g23
sg81
I0
sbasbsS'retrieve'
p151
g2
(g3
g4
Ntp152
Rp153
(dp154
S'steps'
p155
(lp156
g2
(g10
g4
Ntp157
Rp158
(dp159
S'has_constraint'
p160
I00
sS'pose'
p161
NsS'step_type'
p162
S'move_torso'
p163
sS'all_joint_states'
p164
(lp165
sS'joint_value'
p166
I0
sS'torso_height'
p167
F0.37998115496979673
sS'joint_name'
p168
g23
sS'gripper_state'
p169
I0
sbag2
(g10
g4
Ntp170
Rp171
(dp172
g160
I00
sg161
Nsg162
S'move_all_joints'
p173
sg164
(lp174
F1.078384194066639
aF-0.9042662500472112
aF-0.6487991812133203
aF1.6106964081170263
aF0.5042310621434076
aF0.9969493954918214
aF-0.6858966196770266
asg166
I0
sg167
F0.4
sg168
g23
sg169
I0
sbag2
(g10
g4
Ntp175
Rp176
(dp177
S'has_constraint'
p178
I00
sS'pose'
p179
NsS'step_type'
p180
S'move_gripper'
p181
sS'all_joint_states'
p182
(lp183
sS'joint_value'
p184
I0
sS'torso_height'
p185
F0.4
sS'joint_name'
p186
g23
sS'gripper_state'
p187
I0
sbag2
(g10
g4
Ntp188
Rp189
(dp190
S'has_constraint'
p191
I00
sS'torso_height'
p192
F0.3436836302280426
sS'pose'
p193
g2
(g49
g4
Ntp194
Rp195
(lp196
g2
(g53
g4
Ntp197
Rp198
(lp199
I0
ag2
(g57
g4
Ntp200
Rp201
(lp202
I0
aI0
abaS'handle'
p203
abag2
(g62
g4
Ntp204
Rp205
(lp206
g2
(g66
g4
Ntp207
Rp208
(lp209
cnumpy.core.multiarray
scalar
p210
(cnumpy
dtype
p211
(S'f8'
p212
I0
I1
tp213
Rp214
(I3
S'<'
p215
NNNI-1
I-1
I0
tp216
bS'\x00`\xb0\x06\x93\xe4\x1b\xbf'
p217
tp218
Rp219
ag210
(g214
S'\xd0\x00\x19e\x8bGj?'
p220
tp221
Rp222
ag210
(g214
S'\x00N\x07\xecY\x0f\xc1?'
p223
tp224
Rp225
abag2
(g70
g4
Ntp226
Rp227
(lp228
g210
(g214
S'\xd6HL\xd71\xaf\xe6?'
p229
tp230
Rp231
ag210
(g214
S'~,d\xd0\x10\x82\xab\xbf'
p232
tp233
Rp234
ag210
(g214
S'\xfb\xe3t\xaf)v\xe6\xbf'
p235
tp236
Rp237
ag210
(g214
S'\xa1-H\xd9\xeeK\xa6\xbf'
p238
tp239
Rp240
abababsg74
g75
sS'gripper_state'
p241
I0
sbag2
(g10
g4
Ntp242
Rp243
(dp244
g191
I00
sg192
F0.34367600083351135
sg193
g2
(g49
g4
Ntp245
Rp246
(lp247
g2
(g53
g4
Ntp248
Rp249
(lp250
I0
ag2
(g57
g4
Ntp251
Rp252
(lp253
I0
aI0
abaS'handle'
p254
abag2
(g62
g4
Ntp255
Rp256
(lp257
g2
(g66
g4
Ntp258
Rp259
(lp260
g210
(g214
S'\x00\xf0Yf\xbeOU\xbf'
p261
tp262
Rp263
ag210
(g214
S' B\xf5F\xee%`?'
p264
tp265
Rp266
ag210
(g214
S'\x00n\x90^\xe2`\xa7?'
p267
tp268
Rp269
abag2
(g70
g4
Ntp270
Rp271
(lp272
g210
(g214
S'f\x86\x10T0\xab\xe6?'
p273
tp274
Rp275
ag210
(g214
S'7\x11eu\x15MO?'
p276
tp277
Rp278
ag210
(g214
S'e\t\x8eL\xe7\x95\xe6\xbf'
p279
tp280
Rp281
ag210
(g214
S'\xa4%\xe0\xfc\xe5\xabr?'
p282
tp283
Rp284
abababsg74
g75
sg241
I0
sbag2
(g10
g4
Ntp285
Rp286
(dp287
g191
I00
sg192
F0.34366074204444885
sg193
g2
(g49
g4
Ntp288
Rp289
(lp290
g2
(g53
g4
Ntp291
Rp292
(lp293
I0
ag2
(g57
g4
Ntp294
Rp295
(lp296
I0
aI0
abaS'handle'
p297
abag2
(g62
g4
Ntp298
Rp299
(lp300
g2
(g66
g4
Ntp301
Rp302
(lp303
g210
(g214
S'\x00\xc0\x16\x1d\x9a\xf1\x07\xbf'
p304
tp305
Rp306
ag210
(g214
S'\x00\x99\x110K\xeaH?'
p307
tp308
Rp309
ag210
(g214
S'\xe0\xf3)\x91\xbb\x8f\xc0?'
p310
tp311
Rp312
abag2
(g70
g4
Ntp313
Rp314
(lp315
g210
(g214
S'\xfa\xd1U\xacy\xc4\xe6?'
p316
tp317
Rp318
ag210
(g214
S'\x82\x0c\x926\x8e\xd0p\xbf'
p319
tp320
Rp321
ag210
(g214
S'\x903\x0c\xb2\xcf{\xe6\xbf'
p322
tp323
Rp324
ag210
(g214
S'\nj\xa2\xa1\x8cG\x85?'
p325
tp326
Rp327
abababsg74
g75
sg241
I1
sbag2
(g10
g4
Ntp328
Rp329
(dp330
g28
I00
sg29
Nsg30
g31
sg32
(lp331
F0.21404155756835938
aF-0.7024518008496093
aF-0.6332944703900146
aF1.6175898924682617
aF0.6305161452186584
aF0.8698963011169434
aF-0.685180747026825
asg34
I0
sg35
F0.4
sg36
g23
sg37
I0
sbasbsS'high-five'
p332
g2
(g3
g4
Ntp333
Rp334
(dp335
S'steps'
p336
(lp337
g2
(g10
g4
Ntp338
Rp339
(dp340
S'has_constraint'
p341
I00
sS'pose'
p342
NsS'step_type'
p343
S'move_all_joints'
p344
sS'all_joint_states'
p345
(lp346
F1.0351050760925293
aF-0.04705820038574219
aF-0.6336771918141174
aF0.39922565372924806
aF0.6308996415031433
aF-1.9135128175354004
aF-0.03745736166114509
asS'joint_value'
p347
I0
sS'torso_height'
p348
F0.4
sS'joint_name'
p349
g23
sS'gripper_state'
p350
I0
sbag2
(g10
g4
Ntp351
Rp352
(dp353
g341
I00
sg342
Nsg343
g344
sg345
(lp354
F0.9031827714622498
aF-0.29939804032104494
aF-0.6329109741055298
aF0.400375784954834
aF0.6301326489341735
aF-1.1990605508422851
aF-0.038991342375302315
asg347
I0
sg348
F0.4
sg349
g23
sg350
I0
sbasbs.