(dp0
S'retrieve'
p1
ccopy_reg
_reconstructor
p2
(cprogram_ctrl
Program
p3
c__builtin__
object
p4
Ntp5
Rp6
(dp7
S'steps'
p8
(lp9
g2
(cprogram_ctrl
ProgramStep
p10
g4
Ntp11
Rp12
(dp13
S'has_constraint'
p14
I00
sS'torso_height'
p15
F0.3930995464324951
sS'has_contraint'
p16
I00
sS'pose'
p17
g2
(cgeometry_msgs.msg._PoseStamped
PoseStamped
p18
g4
Ntp19
Rp20
(lp21
g2
(cstd_msgs.msg._Header
Header
p22
g4
Ntp23
Rp24
(lp25
I0
ag2
(cgenpy.rostime
Time
p26
g4
Ntp27
Rp28
(lp29
I0
aI0
abaS'handle'
p30
abag2
(cgeometry_msgs.msg._Pose
Pose
p31
g4
Ntp32
Rp33
(lp34
g2
(cgeometry_msgs.msg._Point
Point
p35
g4
Ntp36
Rp37
(lp38
cnumpy.core.multiarray
scalar
p39
(cnumpy
dtype
p40
(S'f8'
p41
I0
I1
tp42
Rp43
(I3
S'<'
p44
NNNI-1
I-1
I0
tp45
bS'\x00\xe0G^\xee2>\xbf'
p46
tp47
Rp48
ag39
(g43
S'\x00\xee\xd2\x10\xc1\xbbE\xbf'
p49
tp50
Rp51
ag39
(g43
S'$\x84Q\xa0\xaa\x13\xc1?'
p52
tp53
Rp54
abag2
(cgeometry_msgs.msg._Quaternion
Quaternion
p55
g4
Ntp56
Rp57
(lp58
g39
(g43
S'&\t8\xc0\x84\xb7\xe6?'
p59
tp60
Rp61
ag39
(g43
S'\x13\xb0\xd09$t\x93?'
p62
tp63
Rp64
ag39
(g43
S' \x90\x96[H\x81\xe6\xbf'
p65
tp66
Rp67
ag39
(g43
S'\xd6\xe7\x04\xb4\x89\xc5\xa0?'
p68
tp69
Rp70
abababsS'gripper_state'
p71
I0
sbag2
(g10
g4
Ntp72
Rp73
(dp74
g14
I00
sg15
F0.39309191703796387
sg16
I00
sg17
g2
(g18
g4
Ntp75
Rp76
(lp77
g2
(g22
g4
Ntp78
Rp79
(lp80
I0
ag2
(g26
g4
Ntp81
Rp82
(lp83
I0
aI0
abaS'handle'
p84
abag2
(g31
g4
Ntp85
Rp86
(lp87
g2
(g35
g4
Ntp88
Rp89
(lp90
g39
(g43
S'\x0007~v\xad ?'
p91
tp92
Rp93
ag39
(g43
S'\x00f\x08\x93$\xba3?'
p94
tp95
Rp96
ag39
(g43
S'@g\x16\\\x1e\x0f\xa2?'
p97
tp98
Rp99
abag2
(g55
g4
Ntp100
Rp101
(lp102
g39
(g43
S'\x19x\xf4\x87\x89\xb5\xe6?'
p103
tp104
Rp105
ag39
(g43
S'\xd5\xa4]\xc8\x8f\xf4\x94?'
p106
tp107
Rp108
ag39
(g43
S'K\xfa\x80}\xd3\x84\xe6\xbf'
p109
tp110
Rp111
ag39
(g43
S'\xbe\nP7\x99\n\x9c?'
p112
tp113
Rp114
abababsg71
I0
sbag2
(g10
g4
Ntp115
Rp116
(dp117
g14
I00
sg15
F0.39309191703796387
sg16
I00
sg17
g2
(g18
g4
Ntp118
Rp119
(lp120
g2
(g22
g4
Ntp121
Rp122
(lp123
I0
ag2
(g26
g4
Ntp124
Rp125
(lp126
I0
aI0
abaS'handle'
p127
abag2
(g31
g4
Ntp128
Rp129
(lp130
g2
(g35
g4
Ntp131
Rp132
(lp133
g39
(g43
S'\x00\x80.o\x1e2\xf6>'
p134
tp135
Rp136
ag39
(g43
S'\x00\xb8\x8fJ*\xa7T?'
p137
tp138
Rp139
ag39
(g43
S' \xf5NM\xc4\x1d\xa2?'
p140
tp141
Rp142
abag2
(g55
g4
Ntp143
Rp144
(lp145
g39
(g43
S'\xc47\xf1\x94\xc9\xb6\xe6?'
p146
tp147
Rp148
ag39
(g43
S'\xf3\x83w\xe5\xfe\x0b\x94?'
p149
tp150
Rp151
ag39
(g43
S'\xc4\x0c\xa2V\x10\x84\xe6\xbf'
p152
tp153
Rp154
ag39
(g43
S'\x84\x82\nsn\x16\x9b?'
p155
tp156
Rp157
abababsg71
I1
sbag2
(g10
g4
Ntp158
Rp159
(dp160
g14
I00
sg15
F0.3931148052215576
sg16
I00
sg17
g2
(g18
g4
Ntp161
Rp162
(lp163
g2
(g22
g4
Ntp164
Rp165
(lp166
I0
ag2
(g26
g4
Ntp167
Rp168
(lp169
I0
aI0
abaS'handle'
p170
abag2
(g31
g4
Ntp171
Rp172
(lp173
g2
(g35
g4
Ntp174
Rp175
(lp176
g39
(g43
S'\x00\x80HT\xe7\xcd\x11?'
p177
tp178
Rp179
ag39
(g43
S'\x00\x98C\x14\x84\x83S?'
p180
tp181
Rp182
ag39
(g43
S'8X\x0e(I\x99\xc1?'
p183
tp184
Rp185
abag2
(g55
g4
Ntp186
Rp187
(lp188
g39
(g43
S'v\x05\xbbU\xd8\xc1\xe6?'
p189
tp190
Rp191
ag39
(g43
S'\xe4D\xc2\xd8G\xca\x92?'
p192
tp193
Rp194
ag39
(g43
S'of\x08\xc2\x0cy\xe6\xbf'
p195
tp196
Rp197
ag39
(g43
S'\xbf\xfd\xd3M~r\x9b?'
p198
tp199
Rp200
abababsg71
I1
sbag2
(g10
g4
Ntp201
Rp202
(dp203
g14
I01
sg15
F0.26571834087371826
sg17
g2
(g18
g4
Ntp204
Rp205
(lp206
g2
(g22
g4
Ntp207
Rp208
(lp209
I0
ag2
(g26
g4
Ntp210
Rp211
(lp212
I0
aI0
abaS'base_link'
p213
abag2
(g31
g4
Ntp214
Rp215
(lp216
g2
(g35
g4
Ntp217
Rp218
(lp219
F0.40840829361912223
aF-0.07853495843928716
aF0.912509357969899
abag2
(g55
g4
Ntp220
Rp221
(lp222
F-0.00214544898166718
aF0.7066144618045611
aF-0.0007934231049571079
aF0.7075950606788419
abababsg71
I1
sbasbs.